Certificate:
    Data:
        Version: 3 (0x2)
        Serial Number:
            04:7b:a8:8c:59:92:c0:8c:37:37:05:73:85:fc:9f:76
        Signature Algorithm: sha256WithRSAEncryption
        Issuer: CN=ThomCert
        Validity
            Not Before: Apr 15 14:05:17 2020 GMT
            Not After : Jul 19 14:05:17 2022 GMT
        Subject: CN=localhost
        Subject Public Key Info:
            Public Key Algorithm: rsaEncryption
                RSA Public-Key: (2048 bit)
                Modulus:
                    00:c2:99:44:f5:a2:d8:48:38:0c:e1:08:08:36:37:
                    a3:46:25:a5:8c:a2:c4:b8:eb:cd:5a:99:2d:b9:55:
                    f3:b9:d0:40:68:67:bd:7b:90:a0:fc:00:3f:f9:7c:
                    76:e4:57:55:6b:3f:7e:3f:da:d4:bb:54:50:58:dd:
                    23:00:21:dc:7a:13:ca:72:73:56:79:cb:28:d7:7a:
                    8f:5f:ca:7b:5e:a2:b3:7a:1a:50:3e:4f:73:a8:82:
                    52:f3:e0:78:b2:36:01:f4:d9:e2:63:27:60:cb:99:
                    a9:8f:d1:03:dc:8f:d3:d9:55:b3:c2:33:33:e2:3f:
                    49:d7:15:75:e1:1d:27:49:da:b5:9d:3b:b5:2b:49:
                    36:46:79:34:15:b3:a5:52:e6:35:8a:16:4b:3c:58:
                    ef:9f:c1:ec:33:33:d3:2a:36:57:2b:ef:25:b4:d2:
                    ed:30:a1:c5:40:20:c9:45:ac:63:64:90:ee:59:e8:
                    f1:7b:f6:09:2e:50:ce:db:7d:fe:44:f2:43:97:fc:
                    e8:ba:60:79:d3:b0:75:b6:c2:e9:0f:2f:d2:34:4f:
                    90:3f:36:49:04:f7:ae:d3:50:58:d5:17:27:7a:f0:
                    10:b3:0e:9b:af:ce:25:35:13:27:e9:e5:c6:51:7e:
                    cd:43:18:4b:0c:65:5d:e4:f5:ba:59:9d:5f:62:53:
                    e2:71
                Exponent: 65537 (0x10001)
        X509v3 extensions:
            X509v3 Basic Constraints: 
                CA:FALSE
            X509v3 Subject Key Identifier: 
                15:A3:D3:17:A5:95:F8:B1:01:86:54:D9:FA:3F:E0:5F:28:99:75:98
            X509v3 Authority Key Identifier: 
                keyid:F7:22:C6:FD:0C:DA:76:06:1F:12:A2:AD:74:CE:DE:81:39:1A:0B:4C
                DirName:/CN=ThomCert
                serial:43:F8:F2:35:E5:6A:75:01:23:49:34:AA:CA:E5:D8:1C

            X509v3 Extended Key Usage: 
                TLS Web Server Authentication
            X509v3 Key Usage: 
                Digital Signature, Key Encipherment
            X509v3 Subject Alternative Name: 
                DNS:localhost
    Signature Algorithm: sha256WithRSAEncryption
         58:2d:9f:d4:dc:eb:4d:31:ac:de:6a:af:fc:18:0c:20:06:de:
         28:f7:1f:e7:b9:16:a8:99:b4:03:98:e5:93:fc:1a:b2:4e:94:
         f5:dc:d6:85:32:68:8f:99:9a:2f:09:86:5f:13:02:1e:c4:7f:
         b2:f9:b6:f0:12:a9:29:f3:1e:5c:2f:ef:4e:6c:9e:81:ae:ba:
         00:81:98:07:13:60:05:c1:fa:ec:49:8d:78:c4:83:bc:2a:46:
         ed:92:4a:c1:25:38:95:13:a5:af:11:9a:a7:66:d3:11:7a:68:
         55:2a:8f:1d:97:9c:db:b3:e8:b6:93:3f:ab:7e:b6:9a:5b:38:
         4a:44:55:c3:4d:2a:d3:be:46:4c:56:de:db:43:4a:c0:66:e0:
         69:dd:eb:f5:44:b2:62:44:16:3f:85:66:48:aa:84:3b:2a:06:
         10:da:da:6f:29:40:38:b7:12:3c:a5:50:7a:77:2a:5d:44:19:
         14:be:3b:32:99:e0:8a:e4:79:1b:80:54:51:b5:e8:8d:7a:ac:
         20:e7:e7:e0:4d:96:d3:d4:bc:f2:33:38:e2:3f:72:9e:20:d2:
         00:b9:47:23:ac:60:e9:c1:24:65:99:7d:c5:43:bd:09:ae:ea:
         65:d1:ab:f8:81:8f:7a:e8:f1:19:7e:c6:78:25:53:a1:af:5e:
         17:bb:86:95
-----BEGIN CERTIFICATE-----
MIIDYzCCAkugAwIBAgIQBHuojFmSwIw3NwVzhfyfdjANBgkqhkiG9w0BAQsFADAT
MREwDwYDVQQDDAhUaG9tQ2VydDAeFw0yMDA0MTUxNDA1MTdaFw0yMjA3MTkxNDA1
MTdaMBQxEjAQBgNVBAMMCWxvY2FsaG9zdDCCASIwDQYJKoZIhvcNAQEBBQADggEP
ADCCAQoCggEBAMKZRPWi2Eg4DOEICDY3o0YlpYyixLjrzVqZLblV87nQQGhnvXuQ
oPwAP/l8duRXVWs/fj/a1LtUUFjdIwAh3HoTynJzVnnLKNd6j1/Ke16is3oaUD5P
c6iCUvPgeLI2AfTZ4mMnYMuZqY/RA9yP09lVs8IzM+I/SdcVdeEdJ0natZ07tStJ
NkZ5NBWzpVLmNYoWSzxY75/B7DMz0yo2VyvvJbTS7TChxUAgyUWsY2SQ7lno8Xv2
CS5Qztt9/kTyQ5f86LpgedOwdbbC6Q8v0jRPkD82SQT3rtNQWNUXJ3rwELMOm6/O
JTUTJ+nlxlF+zUMYSwxlXeT1ulmdX2JT4nECAwEAAaOBsTCBrjAJBgNVHRMEAjAA
MB0GA1UdDgQWBBQVo9MXpZX4sQGGVNn6P+BfKJl1mDBKBgNVHSMEQzBBgBT3Isb9
DNp2Bh8Soq10zt6BORoLTKEXpBUwEzERMA8GA1UEAwwIVGhvbUNlcnSCEEP48jXl
anUBI0k0qsrl2BwwEwYDVR0lBAwwCgYIKwYBBQUHAwEwCwYDVR0PBAQDAgWgMBQG
A1UdEQQNMAuCCWxvY2FsaG9zdDANBgkqhkiG9w0BAQsFAAOCAQEAWC2f1NzrTTGs
3mqv/BgMIAbeKPcf57kWqJm0A5jlk/wask6U9dzWhTJoj5maLwmGXxMCHsR/svm2
8BKpKfMeXC/vTmyega66AIGYBxNgBcH67EmNeMSDvCpG7ZJKwSU4lROlrxGap2bT
EXpoVSqPHZec27PotpM/q362mls4SkRVw00q075GTFbe20NKwGbgad3r9USyYkQW
P4VmSKqEOyoGENrabylAOLcSPKVQencqXUQZFL47MpngiuR5G4BUUbXojXqsIOfn
4E2W09S88jM44j9yniDSALlHI6xg6cEkZZl9xUO9Ca7qZdGr+IGPeujxGX7GeCVT
oa9eF7uGlQ==
-----END CERTIFICATE-----
