Certificate:
    Data:
        Version: 3 (0x2)
        Serial Number:
            04:8b:df:e0:46:34:fe:c0:e7:15:3f:ef:13:c9:67:ae
        Signature Algorithm: sha256WithRSAEncryption
        Issuer: CN=ThomCert
        Validity
            Not Before: Jun 10 12:18:10 2020 GMT
            Not After : Sep 13 12:18:10 2022 GMT
        Subject: CN=servername
        Subject Public Key Info:
            Public Key Algorithm: rsaEncryption
                RSA Public-Key: (2048 bit)
                Modulus:
                    00:f8:76:7e:38:37:f9:ca:de:ba:3e:7f:23:3f:e9:
                    e8:7f:c7:6e:bc:20:f4:04:26:07:fc:32:69:a7:c8:
                    34:b4:9e:aa:3e:db:8d:b5:4c:78:c7:be:07:ab:ec:
                    b8:d3:c7:3b:0e:3e:a3:f8:78:d6:a7:ff:23:74:23:
                    0f:5c:27:6c:8c:1d:f9:1c:fc:4e:1b:3b:e0:22:25:
                    19:e8:f7:ac:f8:e6:51:9a:45:05:7c:34:63:43:6c:
                    c5:a1:1c:a1:cd:85:77:e6:78:15:96:88:15:2e:21:
                    03:06:24:d2:cf:05:c4:93:cd:16:b7:61:14:94:5a:
                    25:16:78:62:41:69:ec:35:16:5b:09:0d:9f:6a:a9:
                    b2:9f:71:1c:55:8b:20:61:00:d6:56:fa:2b:51:ff:
                    5e:35:ab:6e:b5:36:50:44:99:37:2d:c7:09:5c:66:
                    84:c0:9b:dc:8e:a0:7b:3b:33:65:d5:6d:50:62:b6:
                    d1:4a:10:89:7b:a7:06:b9:a3:84:a4:01:ce:ee:4e:
                    a0:cb:fb:fc:8f:11:2d:3c:be:c9:8b:30:9b:01:62:
                    6e:ff:f4:1a:63:65:08:81:10:5f:5e:0b:a9:39:03:
                    b1:cc:44:19:86:45:ab:5e:85:3f:e8:64:d1:69:fe:
                    0b:f2:ac:82:2f:9b:52:30:6d:cd:41:09:26:59:f5:
                    5b:53
                Exponent: 65537 (0x10001)
        X509v3 extensions:
            X509v3 Basic Constraints: 
                CA:FALSE
            X509v3 Subject Key Identifier: 
                91:CC:47:6C:FA:DF:7F:00:67:BA:6C:44:36:E8:F9:06:AB:40:E8:34
            X509v3 Authority Key Identifier: 
                keyid:F7:22:C6:FD:0C:DA:76:06:1F:12:A2:AD:74:CE:DE:81:39:1A:0B:4C
                DirName:/CN=ThomCert
                serial:43:F8:F2:35:E5:6A:75:01:23:49:34:AA:CA:E5:D8:1C

            X509v3 Extended Key Usage: 
                TLS Web Server Authentication
            X509v3 Key Usage: 
                Digital Signature, Key Encipherment
            X509v3 Subject Alternative Name: 
                DNS:servername
    Signature Algorithm: sha256WithRSAEncryption
         27:30:2a:17:62:ff:cb:61:b3:ea:5b:0d:dd:f8:9a:6f:53:a6:
         7e:46:4e:a2:10:1b:35:d6:87:81:83:f7:aa:57:fb:eb:a6:7b:
         87:71:77:c4:08:db:4a:9c:e7:80:fc:b0:00:e3:66:59:88:b8:
         bd:75:f2:5f:38:fa:04:76:11:36:de:ec:c7:1c:cd:75:b8:fc:
         2b:4c:cb:b6:6a:1d:d2:40:7f:da:41:c0:bc:a6:ba:51:7a:ab:
         a3:20:87:e6:d5:15:92:b2:1a:dc:7d:9e:bd:80:e7:91:8a:93:
         fc:1d:75:79:7c:17:02:17:4c:de:b7:17:43:a7:86:7a:78:ca:
         fa:9b:31:2d:f5:50:29:4a:58:c0:be:2a:9b:77:7d:e8:e9:35:
         c0:02:52:b7:18:68:fc:64:fb:4d:15:78:c7:66:87:07:fe:95:
         4f:23:e6:40:74:14:45:9c:10:56:e3:2d:31:1a:02:82:e4:26:
         d9:b5:17:cf:72:41:31:fe:48:35:a0:4e:b4:ba:6a:fc:4d:01:
         ba:89:c2:4d:be:bb:72:ec:78:c6:4d:c9:6a:3b:75:9d:df:c6:
         b8:21:60:0c:eb:5f:a3:88:11:e2:88:c8:b3:21:2a:dd:37:e1:
         f3:ba:3c:a4:11:0c:2d:03:c6:40:6e:1f:9f:ce:61:4c:34:48:
         9f:84:a9:c8
-----BEGIN CERTIFICATE-----
MIIDZTCCAk2gAwIBAgIQBIvf4EY0/sDnFT/vE8lnrjANBgkqhkiG9w0BAQsFADAT
MREwDwYDVQQDDAhUaG9tQ2VydDAeFw0yMDA2MTAxMjE4MTBaFw0yMjA5MTMxMjE4
MTBaMBUxEzARBgNVBAMMCnNlcnZlcm5hbWUwggEiMA0GCSqGSIb3DQEBAQUAA4IB
DwAwggEKAoIBAQD4dn44N/nK3ro+fyM/6eh/x268IPQEJgf8MmmnyDS0nqo+2421
THjHvger7LjTxzsOPqP4eNan/yN0Iw9cJ2yMHfkc/E4bO+AiJRno96z45lGaRQV8
NGNDbMWhHKHNhXfmeBWWiBUuIQMGJNLPBcSTzRa3YRSUWiUWeGJBaew1FlsJDZ9q
qbKfcRxViyBhANZW+itR/141q261NlBEmTctxwlcZoTAm9yOoHs7M2XVbVBittFK
EIl7pwa5o4SkAc7uTqDL+/yPES08vsmLMJsBYm7/9BpjZQiBEF9eC6k5A7HMRBmG
RatehT/oZNFp/gvyrIIvm1Iwbc1BCSZZ9VtTAgMBAAGjgbIwga8wCQYDVR0TBAIw
ADAdBgNVHQ4EFgQUkcxHbPrffwBnumxENuj5BqtA6DQwSgYDVR0jBEMwQYAU9yLG
/QzadgYfEqKtdM7egTkaC0yhF6QVMBMxETAPBgNVBAMMCFRob21DZXJ0ghBD+PI1
5Wp1ASNJNKrK5dgcMBMGA1UdJQQMMAoGCCsGAQUFBwMBMAsGA1UdDwQEAwIFoDAV
BgNVHREEDjAMggpzZXJ2ZXJuYW1lMA0GCSqGSIb3DQEBCwUAA4IBAQAnMCoXYv/L
YbPqWw3d+JpvU6Z+Rk6iEBs11oeBg/eqV/vrpnuHcXfECNtKnOeA/LAA42ZZiLi9
dfJfOPoEdhE23uzHHM11uPwrTMu2ah3SQH/aQcC8prpRequjIIfm1RWSshrcfZ69
gOeRipP8HXV5fBcCF0zetxdDp4Z6eMr6mzEt9VApSljAviqbd33o6TXAAlK3GGj8
ZPtNFXjHZocH/pVPI+ZAdBRFnBBW4y0xGgKC5CbZtRfPckEx/kg1oE60umr8TQG6
icJNvrty7HjGTclqO3Wd38a4IWAM61+jiBHiiMizISrdN+HzujykEQwtA8ZAbh+f
zmFMNEifhKnI
-----END CERTIFICATE-----
