Certificate:
    Data:
        Version: 3 (0x2)
        Serial Number:
            05:e7:16:ac:ea:67:44:65:d7:2d:6b:5b:eb:0c:cc:da
        Signature Algorithm: sha256WithRSAEncryption
        Issuer: CN=ThomCert
        Validity
            Not Before: Apr 28 10:59:16 2020 GMT
            Not After : Aug  1 10:59:16 2022 GMT
        Subject: CN=servername
        Subject Public Key Info:
            Public Key Algorithm: rsaEncryption
                RSA Public-Key: (2048 bit)
                Modulus:
                    00:e2:b6:9d:ed:76:df:0d:d1:b5:c3:5d:04:59:b9:
                    00:9a:3c:32:87:a2:0d:23:69:ce:bf:73:27:05:1e:
                    7a:2c:90:0e:c7:98:21:ea:86:fc:42:2d:af:f1:70:
                    55:a1:f8:18:34:f1:cd:0b:59:db:6f:09:01:5e:cf:
                    5b:32:7e:9f:9d:aa:5a:ad:33:0a:a5:d6:1a:d9:a0:
                    16:87:18:ee:32:89:7a:fe:dd:c7:1c:13:c1:a9:50:
                    35:fd:26:e8:07:db:76:01:a9:53:53:ca:91:d7:3d:
                    19:88:f8:e1:95:4c:cd:ea:61:2e:a2:d0:d9:e5:aa:
                    84:f8:84:e9:52:3a:ed:1d:65:2c:64:86:0c:9f:06:
                    67:6a:8a:17:1b:d7:f1:13:6d:46:08:ac:25:22:d3:
                    e3:3f:77:61:84:42:bb:87:94:5b:28:38:b7:a6:35:
                    f8:cf:8b:9f:1e:78:5b:7f:36:9a:99:3e:c2:77:7e:
                    b4:94:16:1b:b4:10:7f:68:02:13:fa:74:36:60:18:
                    e2:f5:70:e4:ef:37:b8:f7:9e:9e:33:75:75:67:83:
                    94:43:2d:02:4a:90:ba:13:4c:1c:17:81:6a:08:7b:
                    cd:16:d7:a4:a8:dc:9d:74:03:b3:90:28:37:66:3b:
                    83:0e:07:0b:d1:d2:76:b2:89:12:5c:9d:1c:d2:3c:
                    c1:f7
                Exponent: 65537 (0x10001)
        X509v3 extensions:
            X509v3 Basic Constraints: 
                CA:FALSE
            X509v3 Subject Key Identifier: 
                9E:1C:52:D3:38:C3:56:9A:DE:A3:BB:7D:E6:3A:AC:C7:39:27:1A:39
            X509v3 Authority Key Identifier: 
                keyid:F7:22:C6:FD:0C:DA:76:06:1F:12:A2:AD:74:CE:DE:81:39:1A:0B:4C
                DirName:/CN=ThomCert
                serial:43:F8:F2:35:E5:6A:75:01:23:49:34:AA:CA:E5:D8:1C

            X509v3 Extended Key Usage: 
                TLS Web Server Authentication
            X509v3 Key Usage: 
                Digital Signature, Key Encipherment
            X509v3 Subject Alternative Name: 
                DNS:localhost
    Signature Algorithm: sha256WithRSAEncryption
         69:c1:e7:83:40:e9:98:4e:63:d5:ce:eb:b3:f4:8c:9f:de:29:
         45:3d:3c:ae:7f:30:8d:f2:6b:22:58:f5:a2:49:0f:99:73:fb:
         6b:21:95:2e:b2:90:2e:6b:a2:b0:fd:c1:84:39:08:2a:7b:f7:
         83:9f:58:49:41:57:f5:85:9e:68:22:fc:90:11:42:24:c7:25:
         d3:9e:b4:22:cc:72:2b:68:e4:c1:8d:e6:4b:7f:f4:ee:a6:f3:
         95:16:8d:ee:ac:99:c3:5e:1d:91:a5:7c:66:32:92:88:b5:a4:
         80:c5:94:ae:b3:1e:a2:71:43:53:aa:ab:46:9c:00:3c:0d:7d:
         0d:78:ec:e9:5c:dc:ea:73:8a:1b:9f:45:39:34:50:b4:0d:1b:
         a8:92:53:d3:54:90:16:ea:b4:5e:2e:5c:aa:8a:31:19:3f:4e:
         c3:07:9f:1c:25:e5:69:76:c7:52:4f:c1:7e:d6:ff:5b:33:be:
         35:67:b4:da:31:17:85:90:37:5e:42:e1:f4:2e:45:8e:8b:da:
         be:c5:f9:0c:08:5c:51:2a:e7:11:ca:56:00:b8:19:99:10:79:
         f0:ca:32:eb:cf:c6:80:df:fa:f7:23:5c:bf:50:65:c4:8c:96:
         3a:74:6f:dd:ca:10:21:bc:99:72:f5:0f:0d:cc:f4:89:77:77:
         ac:99:18:49
-----BEGIN CERTIFICATE-----
MIIDZDCCAkygAwIBAgIQBecWrOpnRGXXLWtb6wzM2jANBgkqhkiG9w0BAQsFADAT
MREwDwYDVQQDDAhUaG9tQ2VydDAeFw0yMDA0MjgxMDU5MTZaFw0yMjA4MDExMDU5
MTZaMBUxEzARBgNVBAMMCnNlcnZlcm5hbWUwggEiMA0GCSqGSIb3DQEBAQUAA4IB
DwAwggEKAoIBAQDitp3tdt8N0bXDXQRZuQCaPDKHog0jac6/cycFHnoskA7HmCHq
hvxCLa/xcFWh+Bg08c0LWdtvCQFez1syfp+dqlqtMwql1hrZoBaHGO4yiXr+3ccc
E8GpUDX9JugH23YBqVNTypHXPRmI+OGVTM3qYS6i0NnlqoT4hOlSOu0dZSxkhgyf
Bmdqihcb1/ETbUYIrCUi0+M/d2GEQruHlFsoOLemNfjPi58eeFt/NpqZPsJ3frSU
Fhu0EH9oAhP6dDZgGOL1cOTvN7j3np4zdXVng5RDLQJKkLoTTBwXgWoIe80W16So
3J10A7OQKDdmO4MOBwvR0nayiRJcnRzSPMH3AgMBAAGjgbEwga4wCQYDVR0TBAIw
ADAdBgNVHQ4EFgQUnhxS0zjDVpreo7t95jqsxzknGjkwSgYDVR0jBEMwQYAU9yLG
/QzadgYfEqKtdM7egTkaC0yhF6QVMBMxETAPBgNVBAMMCFRob21DZXJ0ghBD+PI1
5Wp1ASNJNKrK5dgcMBMGA1UdJQQMMAoGCCsGAQUFBwMBMAsGA1UdDwQEAwIFoDAU
BgNVHREEDTALgglsb2NhbGhvc3QwDQYJKoZIhvcNAQELBQADggEBAGnB54NA6ZhO
Y9XO67P0jJ/eKUU9PK5/MI3yayJY9aJJD5lz+2shlS6ykC5rorD9wYQ5CCp794Of
WElBV/WFnmgi/JARQiTHJdOetCLMcito5MGN5kt/9O6m85UWje6smcNeHZGlfGYy
koi1pIDFlK6zHqJxQ1Oqq0acADwNfQ147Olc3OpzihufRTk0ULQNG6iSU9NUkBbq
tF4uXKqKMRk/TsMHnxwl5Wl2x1JPwX7W/1szvjVntNoxF4WQN15C4fQuRY6L2r7F
+QwIXFEq5xHKVgC4GZkQefDKMuvPxoDf+vcjXL9QZcSMljp0b93KECG8mXL1Dw3M
9Il3d6yZGEk=
-----END CERTIFICATE-----
