Certificate:
    Data:
        Version: 3 (0x2)
        Serial Number:
            26:62:6f:77:8a:bc:37:8c:1f:d4:71:91:b2:22:6d:41
        Signature Algorithm: sha256WithRSAEncryption
        Issuer: CN=ThomCert
        Validity
            Not Before: Feb 25 14:03:10 2021 GMT
            Not After : May 31 14:03:10 2023 GMT
        Subject: CN=client
        Subject Public Key Info:
            Public Key Algorithm: rsaEncryption
                RSA Public-Key: (2048 bit)
                Modulus:
                    00:bc:a8:2e:47:8b:c6:e2:0f:b0:54:22:4b:0f:9a:
                    d9:f9:2e:94:11:e9:a0:63:10:ea:d9:f7:33:eb:48:
                    ef:39:06:31:29:e0:f4:9c:0d:4b:98:b0:8a:00:64:
                    1c:a2:90:5e:ad:d2:4e:61:1a:2d:9d:7e:17:4c:3d:
                    65:df:7c:41:11:40:9f:22:73:6e:cb:98:92:4a:8a:
                    18:50:15:0e:76:17:a1:61:6d:ee:b3:e4:f0:1b:ff:
                    86:73:2d:58:43:ac:8c:5f:60:4b:bd:24:08:4e:cd:
                    af:84:0e:c3:b9:c6:15:a4:46:81:66:01:54:41:fe:
                    96:6c:74:28:a5:b6:65:5a:24:95:b8:76:96:a4:ae:
                    73:f0:91:fc:24:f2:04:a2:00:98:bf:e7:c6:0a:f2:
                    1f:ff:cf:e7:e2:8d:71:2d:32:d5:56:22:ab:d2:cc:
                    b9:54:5b:23:58:38:38:63:4a:72:02:d8:ee:bc:14:
                    ef:c6:16:c2:1c:88:ba:d4:95:ea:72:7d:46:3a:3d:
                    2a:aa:b5:f4:bb:fd:d2:43:1e:b9:e1:69:16:fb:70:
                    7f:1d:b0:82:26:57:fb:2b:d8:af:2a:9d:0a:ea:16:
                    09:67:73:26:36:21:0f:0b:5e:39:92:60:2a:79:5a:
                    bd:b6:ee:5c:92:88:cd:31:a4:13:61:5c:c9:2a:52:
                    72:07
                Exponent: 65537 (0x10001)
        X509v3 extensions:
            X509v3 Basic Constraints: 
                CA:FALSE
            X509v3 Subject Key Identifier: 
                43:B9:AD:82:5A:BD:48:40:9C:48:A3:89:0D:C4:F7:1A:F8:A5:52:AE
            X509v3 Authority Key Identifier: 
                keyid:F7:22:C6:FD:0C:DA:76:06:1F:12:A2:AD:74:CE:DE:81:39:1A:0B:4C
                DirName:/CN=ThomCert
                serial:43:F8:F2:35:E5:6A:75:01:23:49:34:AA:CA:E5:D8:1C

            X509v3 Extended Key Usage: 
                TLS Web Client Authentication
            X509v3 Key Usage: 
                Digital Signature
    Signature Algorithm: sha256WithRSAEncryption
         80:36:ea:be:17:c3:6b:dc:4c:71:a5:09:74:23:b4:56:f5:be:
         7d:e3:d1:f0:a4:fb:49:60:35:0e:d2:d3:87:68:ae:2f:19:5f:
         f6:b6:7c:07:b5:44:65:a2:29:07:42:40:37:c7:7f:a8:e6:b4:
         1a:fa:79:0a:05:17:4a:1c:4c:89:14:f1:45:57:01:e7:56:8c:
         e9:a5:d1:05:cf:dc:84:ba:c5:37:e0:bb:76:ff:37:37:f8:39:
         d4:2b:c1:14:94:fe:e5:99:50:b6:69:10:5d:a0:03:8d:db:dc:
         17:21:1e:1c:8e:d9:98:3b:bf:1b:16:5f:7a:45:d2:f7:27:c6:
         28:40:47:ec:75:0d:6f:cb:82:cd:ff:e4:04:a1:06:2c:21:bb:
         2d:f8:0b:71:61:24:b3:89:d4:6f:a9:6f:fe:3b:ec:3d:2d:9c:
         98:ba:0d:de:af:68:7e:49:57:c1:e9:9d:93:ac:2f:15:70:80:
         61:b7:93:8f:95:ae:39:f9:64:5c:7c:fb:dc:18:00:2f:d7:66:
         9f:2f:28:96:b1:7c:6f:ea:69:fe:1a:57:2b:15:e4:65:ae:23:
         c5:6f:fd:be:bf:c8:54:dc:30:97:10:a7:65:d1:1b:40:2f:4a:
         1e:62:1e:d9:f6:b6:ed:84:64:ca:05:e6:c4:ab:36:cb:69:74:
         a4:fc:19:3d
-----BEGIN CERTIFICATE-----
MIIDSjCCAjKgAwIBAgIQJmJvd4q8N4wf1HGRsiJtQTANBgkqhkiG9w0BAQsFADAT
MREwDwYDVQQDDAhUaG9tQ2VydDAeFw0yMTAyMjUxNDAzMTBaFw0yMzA1MzExNDAz
MTBaMBExDzANBgNVBAMMBmNsaWVudDCCASIwDQYJKoZIhvcNAQEBBQADggEPADCC
AQoCggEBALyoLkeLxuIPsFQiSw+a2fkulBHpoGMQ6tn3M+tI7zkGMSng9JwNS5iw
igBkHKKQXq3STmEaLZ1+F0w9Zd98QRFAnyJzbsuYkkqKGFAVDnYXoWFt7rPk8Bv/
hnMtWEOsjF9gS70kCE7Nr4QOw7nGFaRGgWYBVEH+lmx0KKW2ZVoklbh2lqSuc/CR
/CTyBKIAmL/nxgryH//P5+KNcS0y1VYiq9LMuVRbI1g4OGNKcgLY7rwU78YWwhyI
utSV6nJ9Rjo9Kqq19Lv90kMeueFpFvtwfx2wgiZX+yvYryqdCuoWCWdzJjYhDwte
OZJgKnlavbbuXJKIzTGkE2FcySpScgcCAwEAAaOBmzCBmDAJBgNVHRMEAjAAMB0G
A1UdDgQWBBRDua2CWr1IQJxIo4kNxPca+KVSrjBKBgNVHSMEQzBBgBT3Isb9DNp2
Bh8Soq10zt6BORoLTKEXpBUwEzERMA8GA1UEAwwIVGhvbUNlcnSCEEP48jXlanUB
I0k0qsrl2BwwEwYDVR0lBAwwCgYIKwYBBQUHAwIwCwYDVR0PBAQDAgeAMA0GCSqG
SIb3DQEBCwUAA4IBAQCANuq+F8Nr3ExxpQl0I7RW9b5949HwpPtJYDUO0tOHaK4v
GV/2tnwHtURloikHQkA3x3+o5rQa+nkKBRdKHEyJFPFFVwHnVozppdEFz9yEusU3
4Lt2/zc3+DnUK8EUlP7lmVC2aRBdoAON29wXIR4cjtmYO78bFl96RdL3J8YoQEfs
dQ1vy4LN/+QEoQYsIbst+AtxYSSzidRvqW/+O+w9LZyYug3er2h+SVfB6Z2TrC8V
cIBht5OPla45+WRcfPvcGAAv12afLyiWsXxv6mn+GlcrFeRlriPFb/2+v8hU3DCX
EKdl0RtAL0oeYh7Z9rbthGTKBebEqzbLaXSk/Bk9
-----END CERTIFICATE-----
