Certificate:
    Data:
        Version: 3 (0x2)
        Serial Number:
            4c:d3:dc:d5:c3:fa:4f:2c:44:bf:4b:65:35:42:8d:ce
        Signature Algorithm: sha256WithRSAEncryption
        Issuer: CN=ThomCert
        Validity
            Not Before: Jun 10 12:18:12 2020 GMT
            Not After : Sep 13 12:18:12 2022 GMT
        Subject: CN=servername
        Subject Public Key Info:
            Public Key Algorithm: rsaEncryption
                RSA Public-Key: (2048 bit)
                Modulus:
                    00:dd:cc:6e:a0:2a:49:9c:87:d3:b7:50:9e:78:3e:
                    f9:5c:77:b1:62:39:62:63:5f:89:71:40:ae:0d:47:
                    8d:a8:d1:1c:da:2e:58:a5:a8:95:4f:91:97:58:df:
                    bd:0b:f0:4c:09:e6:5c:83:00:9b:ec:83:9a:2e:08:
                    b4:d2:96:c3:ff:2c:31:50:fa:65:b6:30:f7:62:bf:
                    32:02:9e:10:2d:0c:d6:65:f2:b7:b7:4c:55:2f:7d:
                    e4:b4:9e:76:40:0b:c6:7f:aa:4e:0b:b8:36:26:fe:
                    bf:25:98:a5:76:55:34:d5:c0:fb:12:2e:27:3b:12:
                    d2:b7:f5:fd:eb:08:7c:1b:3a:f2:a8:1e:cc:36:c1:
                    19:ce:f5:6f:fa:bd:8d:cf:fb:bf:14:8d:37:94:bf:
                    eb:21:f1:d6:ba:d0:93:75:48:34:0d:98:a4:78:84:
                    50:c7:66:4c:d7:9c:34:98:f4:c0:8e:9e:9b:11:cd:
                    51:8b:cb:f8:d1:af:e0:fe:d1:92:81:74:69:2c:55:
                    27:f0:58:b2:fc:53:2f:93:6f:55:3d:1f:5d:11:75:
                    ac:30:d0:8b:88:ff:61:ec:71:c6:c9:a9:6f:37:e0:
                    05:17:1d:f2:2d:ed:9b:5c:07:08:cc:0d:6d:f9:62:
                    97:76:bb:1f:5b:43:13:e9:38:fb:94:c0:ee:e1:cd:
                    db:67
                Exponent: 65537 (0x10001)
        X509v3 extensions:
            X509v3 Basic Constraints: 
                CA:FALSE
            X509v3 Subject Key Identifier: 
                89:F1:29:5E:25:4A:99:3B:60:D9:1D:C8:C5:FD:AA:47:82:14:85:AD
            X509v3 Authority Key Identifier: 
                keyid:F7:22:C6:FD:0C:DA:76:06:1F:12:A2:AD:74:CE:DE:81:39:1A:0B:4C
                DirName:/CN=ThomCert
                serial:43:F8:F2:35:E5:6A:75:01:23:49:34:AA:CA:E5:D8:1C

            X509v3 Extended Key Usage: 
                TLS Web Server Authentication
            X509v3 Key Usage: 
                Digital Signature, Key Encipherment
            X509v3 Subject Alternative Name: 
                DNS:servername
    Signature Algorithm: sha256WithRSAEncryption
         28:b5:e0:97:e6:a2:57:66:62:4a:27:ed:cd:2f:ce:41:57:d4:
         3e:55:aa:7d:d5:90:21:c6:b3:e4:63:aa:52:de:9c:19:b3:8a:
         7d:84:54:09:5b:84:b3:71:8d:ec:f4:e5:82:de:2b:3d:8a:d5:
         50:5a:b7:07:c8:20:69:45:28:a4:75:45:71:eb:f9:d4:4e:4e:
         40:6a:b2:e7:c7:4a:6f:a9:7b:11:3e:9e:af:7d:4b:69:4f:b0:
         87:85:f9:5d:23:26:86:90:35:4b:a4:68:11:c2:75:35:94:8d:
         d0:c6:fd:12:34:7f:20:a7:1e:e8:b0:bd:40:69:40:4e:82:36:
         c9:3a:b7:66:c3:95:58:cb:51:24:2e:02:b5:a5:51:21:71:5c:
         63:3b:0e:4a:7c:5d:5d:5b:b4:ff:17:ef:4f:a9:6d:1d:00:3f:
         ce:74:d3:30:47:85:26:1b:0e:1a:64:49:2a:f3:ba:c1:bf:fc:
         ae:e3:90:1b:a7:27:c4:7a:51:0f:73:eb:1e:01:9d:ce:2f:b6:
         a8:a5:6a:7d:ec:10:f5:ef:80:ff:c1:44:f5:b3:88:9a:fc:20:
         23:a0:e5:95:01:b0:4c:75:89:fb:78:f8:2f:be:5d:d5:81:39:
         b8:ac:d7:d7:a3:cf:95:0e:67:8e:13:c4:53:d4:ab:43:cf:4a:
         a0:cd:e6:3b
-----BEGIN CERTIFICATE-----
MIIDZTCCAk2gAwIBAgIQTNPc1cP6TyxEv0tlNUKNzjANBgkqhkiG9w0BAQsFADAT
MREwDwYDVQQDDAhUaG9tQ2VydDAeFw0yMDA2MTAxMjE4MTJaFw0yMjA5MTMxMjE4
MTJaMBUxEzARBgNVBAMMCnNlcnZlcm5hbWUwggEiMA0GCSqGSIb3DQEBAQUAA4IB
DwAwggEKAoIBAQDdzG6gKkmch9O3UJ54Pvlcd7FiOWJjX4lxQK4NR42o0RzaLlil
qJVPkZdY370L8EwJ5lyDAJvsg5ouCLTSlsP/LDFQ+mW2MPdivzICnhAtDNZl8re3
TFUvfeS0nnZAC8Z/qk4LuDYm/r8lmKV2VTTVwPsSLic7EtK39f3rCHwbOvKoHsw2
wRnO9W/6vY3P+78UjTeUv+sh8da60JN1SDQNmKR4hFDHZkzXnDSY9MCOnpsRzVGL
y/jRr+D+0ZKBdGksVSfwWLL8Uy+Tb1U9H10Rdaww0IuI/2HsccbJqW834AUXHfIt
7ZtcBwjMDW35Ypd2ux9bQxPpOPuUwO7hzdtnAgMBAAGjgbIwga8wCQYDVR0TBAIw
ADAdBgNVHQ4EFgQUifEpXiVKmTtg2R3Ixf2qR4IUha0wSgYDVR0jBEMwQYAU9yLG
/QzadgYfEqKtdM7egTkaC0yhF6QVMBMxETAPBgNVBAMMCFRob21DZXJ0ghBD+PI1
5Wp1ASNJNKrK5dgcMBMGA1UdJQQMMAoGCCsGAQUFBwMBMAsGA1UdDwQEAwIFoDAV
BgNVHREEDjAMggpzZXJ2ZXJuYW1lMA0GCSqGSIb3DQEBCwUAA4IBAQAoteCX5qJX
ZmJKJ+3NL85BV9Q+Vap91ZAhxrPkY6pS3pwZs4p9hFQJW4SzcY3s9OWC3is9itVQ
WrcHyCBpRSikdUVx6/nUTk5AarLnx0pvqXsRPp6vfUtpT7CHhfldIyaGkDVLpGgR
wnU1lI3Qxv0SNH8gpx7osL1AaUBOgjbJOrdmw5VYy1EkLgK1pVEhcVxjOw5KfF1d
W7T/F+9PqW0dAD/OdNMwR4UmGw4aZEkq87rBv/yu45AbpyfEelEPc+seAZ3OL7ao
pWp97BD174D/wUT1s4ia/CAjoOWVAbBMdYn7ePgvvl3VgTm4rNfXo8+VDmeOE8RT
1KtDz0qgzeY7
-----END CERTIFICATE-----
