Certificate:
    Data:
        Version: 3 (0x2)
        Serial Number:
            8d:71:bd:b0:32:37:0f:05:55:80:53:37:2c:93:09:f2
        Signature Algorithm: sha256WithRSAEncryption
        Issuer: CN=ThomCert
        Validity
            Not Before: Apr 28 10:59:09 2020 GMT
            Not After : Aug  1 10:59:09 2022 GMT
        Subject: CN=signed-kex
        Subject Public Key Info:
            Public Key Algorithm: rsaEncryption
                RSA Public-Key: (2048 bit)
                Modulus:
                    00:ce:e5:dc:0c:1c:3b:08:ee:e1:d4:77:8c:ec:d5:
                    64:f4:f4:2e:43:68:c5:b6:e2:24:ce:b9:d9:ce:e6:
                    01:81:12:af:71:3a:7f:7c:0e:c0:71:cd:a9:54:17:
                    5e:f3:06:58:c1:be:ff:e7:e7:15:d7:45:b5:15:f2:
                    61:f3:a2:0b:be:d2:9e:1f:6d:95:25:88:f6:2a:63:
                    87:d0:88:71:1c:4b:75:89:1e:40:78:31:be:f4:a9:
                    95:cb:82:e9:41:b3:b3:d9:4b:d4:a7:48:37:e9:f7:
                    ef:a1:12:d9:11:f9:a3:ea:85:66:03:98:f4:4b:0c:
                    0d:9e:c3:f4:94:fc:d3:e5:a9:21:1f:00:9f:3e:50:
                    07:c0:79:90:56:e4:90:e0:75:a4:2e:b2:3b:62:11:
                    47:08:67:75:8a:9d:e3:97:f5:63:35:6d:64:b6:c7:
                    f2:ad:e5:e3:45:c1:da:7b:dd:e6:02:6c:06:88:2a:
                    ca:97:1a:c4:62:31:af:c6:9a:1a:98:eb:16:55:f0:
                    fb:f7:ee:ee:09:dd:7c:5b:d6:56:e2:aa:80:63:ec:
                    28:40:8d:85:f4:74:c3:15:0d:a6:82:56:d5:02:5f:
                    f0:21:e4:aa:30:95:91:ed:49:70:f1:e5:6b:73:8d:
                    bc:ca:07:74:aa:ab:0a:de:e0:97:b7:18:18:f0:30:
                    61:9b
                Exponent: 65537 (0x10001)
        X509v3 extensions:
            X509v3 Basic Constraints: 
                CA:FALSE
            X509v3 Subject Key Identifier: 
                3D:26:D2:5A:30:88:80:3A:CC:AD:03:14:0C:51:36:B2:74:49:BF:CE
            X509v3 Authority Key Identifier: 
                keyid:F7:22:C6:FD:0C:DA:76:06:1F:12:A2:AD:74:CE:DE:81:39:1A:0B:4C
                DirName:/CN=ThomCert
                serial:43:F8:F2:35:E5:6A:75:01:23:49:34:AA:CA:E5:D8:1C

            X509v3 Extended Key Usage: 
                TLS Web Server Authentication
            X509v3 Key Usage: 
                Digital Signature, Key Encipherment
            X509v3 Subject Alternative Name: 
                DNS:localhost
    Signature Algorithm: sha256WithRSAEncryption
         7b:97:b3:b0:e2:b6:d9:d6:01:13:f1:98:76:11:0c:18:92:04:
         16:57:cd:70:04:c2:22:f9:3e:a3:41:19:d1:7d:f5:dd:fc:94:
         87:94:48:ac:ad:14:6f:be:d0:b1:6d:73:43:a5:1b:dd:b9:a6:
         82:11:7e:42:be:bc:0a:bd:ee:96:92:d5:2e:77:aa:98:17:7c:
         3c:ab:f4:cb:00:7a:ab:4f:6d:58:e0:56:58:9b:80:3d:40:50:
         90:a1:0a:b1:45:4b:fb:c9:77:1b:b6:28:f3:86:9c:79:ea:02:
         0b:cf:b4:b0:76:1c:19:57:bc:8f:a5:17:ac:d2:4b:07:80:b3:
         2e:5c:09:ee:b3:6b:7a:38:7f:62:60:84:a8:39:01:0f:e9:aa:
         b3:dd:28:cc:7d:3c:f4:22:e1:99:e8:24:dc:1d:b1:7a:01:68:
         e4:7e:55:e9:fc:53:a1:ce:c5:ff:41:ca:06:d8:44:00:a3:32:
         75:18:8f:aa:09:8a:0c:b8:d8:e9:73:da:6e:24:08:1e:62:dc:
         5f:de:de:55:0c:b0:4d:ed:f6:16:22:f6:3b:87:cd:24:46:80:
         d0:a0:d3:8d:59:c7:a5:de:17:59:9a:6d:1c:85:5f:53:97:c1:
         e6:fe:96:9d:c6:9d:e8:6e:b3:46:ad:87:5f:cb:27:78:6c:3e:
         15:ba:48:ee
-----BEGIN CERTIFICATE-----
MIIDZTCCAk2gAwIBAgIRAI1xvbAyNw8FVYBTNyyTCfIwDQYJKoZIhvcNAQELBQAw
EzERMA8GA1UEAwwIVGhvbUNlcnQwHhcNMjAwNDI4MTA1OTA5WhcNMjIwODAxMTA1
OTA5WjAVMRMwEQYDVQQDDApzaWduZWQta2V4MIIBIjANBgkqhkiG9w0BAQEFAAOC
AQ8AMIIBCgKCAQEAzuXcDBw7CO7h1HeM7NVk9PQuQ2jFtuIkzrnZzuYBgRKvcTp/
fA7Acc2pVBde8wZYwb7/5+cV10W1FfJh86ILvtKeH22VJYj2KmOH0IhxHEt1iR5A
eDG+9KmVy4LpQbOz2UvUp0g36ffvoRLZEfmj6oVmA5j0SwwNnsP0lPzT5akhHwCf
PlAHwHmQVuSQ4HWkLrI7YhFHCGd1ip3jl/VjNW1ktsfyreXjRcHae93mAmwGiCrK
lxrEYjGvxpoamOsWVfD79+7uCd18W9ZW4qqAY+woQI2F9HTDFQ2mglbVAl/wIeSq
MJWR7Ulw8eVrc428ygd0qqsK3uCXtxgY8DBhmwIDAQABo4GxMIGuMAkGA1UdEwQC
MAAwHQYDVR0OBBYEFD0m0lowiIA6zK0DFAxRNrJ0Sb/OMEoGA1UdIwRDMEGAFPci
xv0M2nYGHxKirXTO3oE5GgtMoRekFTATMREwDwYDVQQDDAhUaG9tQ2VydIIQQ/jy
NeVqdQEjSTSqyuXYHDATBgNVHSUEDDAKBggrBgEFBQcDATALBgNVHQ8EBAMCBaAw
FAYDVR0RBA0wC4IJbG9jYWxob3N0MA0GCSqGSIb3DQEBCwUAA4IBAQB7l7Ow4rbZ
1gET8Zh2EQwYkgQWV81wBMIi+T6jQRnRffXd/JSHlEisrRRvvtCxbXNDpRvduaaC
EX5CvrwKve6WktUud6qYF3w8q/TLAHqrT21Y4FZYm4A9QFCQoQqxRUv7yXcbtijz
hpx56gILz7SwdhwZV7yPpRes0ksHgLMuXAnus2t6OH9iYISoOQEP6aqz3SjMfTz0
IuGZ6CTcHbF6AWjkflXp/FOhzsX/QcoG2EQAozJ1GI+qCYoMuNjpc9puJAgeYtxf
3t5VDLBN7fYWIvY7h80kRoDQoNONWcel3hdZmm0chV9Tl8Hm/padxp3obrNGrYdf
yyd4bD4Vukju
-----END CERTIFICATE-----
