Certificate:
    Data:
        Version: 3 (0x2)
        Serial Number:
            95:7a:5d:f0:1c:f6:e6:18:1d:92:28:a1:16:2a:d8:95
        Signature Algorithm: sha256WithRSAEncryption
        Issuer: CN=ThomCert
        Validity
            Not Before: Jun 10 12:17:05 2020 GMT
            Not After : Sep 13 12:17:05 2022 GMT
        Subject: CN=servername
        Subject Public Key Info:
            Public Key Algorithm: rsaEncryption
                RSA Public-Key: (2048 bit)
                Modulus:
                    00:b6:79:28:4d:ab:73:3f:69:01:d4:f5:e4:b9:31:
                    d5:9e:67:83:9d:36:ec:4c:e2:47:12:36:14:c0:5f:
                    a0:eb:3c:c5:74:76:a1:cc:64:d0:df:24:51:ab:66:
                    e2:1a:0b:d4:90:59:9f:45:78:ba:ee:7d:46:ba:23:
                    02:62:90:0e:49:05:67:99:d9:8d:bc:26:00:42:96:
                    c6:43:8e:2b:09:71:41:b5:f2:84:11:9b:38:c0:9e:
                    c5:84:82:67:94:76:a0:1a:2e:b6:c0:da:b7:e5:c8:
                    56:1f:12:f1:03:ec:3d:13:32:02:46:6d:a7:75:d9:
                    44:bd:21:69:b7:16:91:e8:19:04:d7:f7:46:4f:41:
                    ee:04:76:1d:7d:c4:95:ef:9f:a9:0a:b4:c2:7e:c9:
                    d0:b9:71:71:a8:3a:8c:87:c6:68:f7:8c:da:40:45:
                    fb:7c:72:9b:af:8e:f8:8f:3c:4c:da:67:ac:a0:35:
                    3a:8b:91:e9:32:a1:2d:da:4d:c3:04:5e:0b:5b:cb:
                    86:4c:23:be:fb:ee:cc:3f:d0:11:9a:ff:39:fa:62:
                    4b:d6:36:c9:3c:a0:ea:40:15:91:93:76:1e:f4:6a:
                    fa:d9:f0:a4:71:42:cd:24:74:7d:8c:d3:16:11:b4:
                    a8:1a:7f:1c:c5:8a:de:b3:76:ab:c8:34:89:2e:ee:
                    16:fb
                Exponent: 65537 (0x10001)
        X509v3 extensions:
            X509v3 Basic Constraints: 
                CA:FALSE
            X509v3 Subject Key Identifier: 
                0C:4B:C2:DB:FE:9A:ED:22:03:27:C9:0D:4C:FC:B4:CA:EF:8B:64:F1
            X509v3 Authority Key Identifier: 
                keyid:F7:22:C6:FD:0C:DA:76:06:1F:12:A2:AD:74:CE:DE:81:39:1A:0B:4C
                DirName:/CN=ThomCert
                serial:43:F8:F2:35:E5:6A:75:01:23:49:34:AA:CA:E5:D8:1C

            X509v3 Extended Key Usage: 
                TLS Web Server Authentication
            X509v3 Key Usage: 
                Digital Signature, Key Encipherment
            X509v3 Subject Alternative Name: 
                DNS:localhost
    Signature Algorithm: sha256WithRSAEncryption
         9c:59:b5:a9:2f:4c:90:6f:ce:73:ab:a3:cd:83:f5:b0:a5:06:
         11:f8:36:36:f5:86:5a:05:7e:9f:48:b0:96:bd:6c:ce:48:f4:
         f7:3d:99:13:8e:f2:f4:88:0f:8d:d1:de:6e:ed:e6:de:9f:80:
         b3:e0:51:35:9a:fd:84:53:49:38:01:db:09:52:fb:b3:ed:18:
         5a:13:de:1d:f8:17:c0:ae:1c:ac:6c:e9:9b:a0:7b:43:8f:76:
         58:85:f3:ef:28:94:f4:88:1f:9a:23:86:00:06:5d:32:59:06:
         e3:78:55:1b:14:98:43:9e:f8:ac:70:93:e3:96:20:d6:e3:fe:
         7c:95:57:73:31:a7:d5:78:b4:58:c3:51:0e:d6:6b:58:fa:c3:
         45:4c:82:25:1d:14:11:1e:98:96:7a:10:58:01:fa:b9:9e:74:
         1e:72:9f:db:86:9d:2d:05:90:76:fc:98:3a:4c:58:c3:52:44:
         95:35:1c:c3:63:ce:72:c5:d9:f1:a5:7d:ea:4e:55:8f:67:08:
         a0:20:78:23:02:3e:bc:0c:f3:66:be:ee:1d:3a:bf:82:10:ca:
         12:68:d9:d6:d2:6f:4f:fd:f6:e0:8a:2e:16:ba:7a:7b:aa:95:
         43:04:2e:3f:9d:1c:05:13:d4:98:7c:1d:81:0f:38:93:ee:83:
         ac:8f:49:73
-----BEGIN CERTIFICATE-----
MIIDZTCCAk2gAwIBAgIRAJV6XfAc9uYYHZIooRYq2JUwDQYJKoZIhvcNAQELBQAw
EzERMA8GA1UEAwwIVGhvbUNlcnQwHhcNMjAwNjEwMTIxNzA1WhcNMjIwOTEzMTIx
NzA1WjAVMRMwEQYDVQQDDApzZXJ2ZXJuYW1lMIIBIjANBgkqhkiG9w0BAQEFAAOC
AQ8AMIIBCgKCAQEAtnkoTatzP2kB1PXkuTHVnmeDnTbsTOJHEjYUwF+g6zzFdHah
zGTQ3yRRq2biGgvUkFmfRXi67n1GuiMCYpAOSQVnmdmNvCYAQpbGQ44rCXFBtfKE
EZs4wJ7FhIJnlHagGi62wNq35chWHxLxA+w9EzICRm2nddlEvSFptxaR6BkE1/dG
T0HuBHYdfcSV75+pCrTCfsnQuXFxqDqMh8Zo94zaQEX7fHKbr474jzxM2mesoDU6
i5HpMqEt2k3DBF4LW8uGTCO+++7MP9ARmv85+mJL1jbJPKDqQBWRk3Ye9Gr62fCk
cULNJHR9jNMWEbSoGn8cxYres3aryDSJLu4W+wIDAQABo4GxMIGuMAkGA1UdEwQC
MAAwHQYDVR0OBBYEFAxLwtv+mu0iAyfJDUz8tMrvi2TxMEoGA1UdIwRDMEGAFPci
xv0M2nYGHxKirXTO3oE5GgtMoRekFTATMREwDwYDVQQDDAhUaG9tQ2VydIIQQ/jy
NeVqdQEjSTSqyuXYHDATBgNVHSUEDDAKBggrBgEFBQcDATALBgNVHQ8EBAMCBaAw
FAYDVR0RBA0wC4IJbG9jYWxob3N0MA0GCSqGSIb3DQEBCwUAA4IBAQCcWbWpL0yQ
b85zq6PNg/WwpQYR+DY29YZaBX6fSLCWvWzOSPT3PZkTjvL0iA+N0d5u7eben4Cz
4FE1mv2EU0k4AdsJUvuz7RhaE94d+BfArhysbOmboHtDj3ZYhfPvKJT0iB+aI4YA
Bl0yWQbjeFUbFJhDnviscJPjliDW4/58lVdzMafVeLRYw1EO1mtY+sNFTIIlHRQR
HpiWehBYAfq5nnQecp/bhp0tBZB2/Jg6TFjDUkSVNRzDY85yxdnxpX3qTlWPZwig
IHgjAj68DPNmvu4dOr+CEMoSaNnW0m9P/fbgii4Wunp7qpVDBC4/nRwFE9SYfB2B
DziT7oOsj0lz
-----END CERTIFICATE-----
