Certificate:
    Data:
        Version: 3 (0x2)
        Serial Number:
            bb:b3:bf:01:5b:78:12:61:7d:fa:7f:f2:27:98:e6:00
        Signature Algorithm: sha256WithRSAEncryption
        Issuer: CN=ThomCert
        Validity
            Not Before: Apr 15 15:48:12 2020 GMT
            Not After : Jul 19 15:48:12 2022 GMT
        Subject: CN=localhost
        Subject Public Key Info:
            Public Key Algorithm: rsaEncryption
                RSA Public-Key: (2048 bit)
                Modulus:
                    00:b6:ed:b8:19:a0:1e:6b:c3:e7:43:b5:26:a1:2f:
                    b8:23:ea:1f:d2:44:7f:5f:8c:08:bf:93:44:ae:3f:
                    74:15:56:33:aa:3a:f8:72:6a:ef:b2:ef:ed:67:2e:
                    59:20:a2:a4:87:ae:9c:9e:10:cc:31:ae:e1:79:cd:
                    c4:4b:02:7f:82:bb:6d:31:e9:a6:0e:a7:f1:78:83:
                    a4:92:50:3c:e8:d5:d1:74:63:00:4c:03:0f:ac:0c:
                    3e:5e:39:09:81:40:13:d1:e7:89:31:f2:9d:cb:f6:
                    59:a9:2b:ec:cb:19:45:b3:54:41:04:fb:e0:6a:91:
                    85:07:4a:94:a8:90:eb:ff:8f:b9:cf:67:b9:29:2d:
                    84:2e:41:1a:7d:21:b0:8e:52:a4:f5:8a:72:72:c3:
                    41:ff:5c:32:1e:04:12:9e:25:af:dd:6c:50:d9:09:
                    37:c4:d6:55:15:1e:36:05:0e:e0:98:fb:d9:65:88:
                    1c:e8:dd:56:aa:fa:79:37:55:a8:2e:c5:44:e9:0f:
                    45:f0:2c:06:a6:e0:00:37:f7:34:6a:a7:8a:52:ec:
                    8c:15:8c:81:1c:39:2f:3e:c4:f3:43:00:3d:c3:e7:
                    8b:f1:23:85:64:44:b9:d0:33:b3:18:a0:b1:a8:cc:
                    87:b5:da:e8:a7:cd:11:98:ba:87:d8:09:5a:3a:08:
                    4f:97
                Exponent: 65537 (0x10001)
        X509v3 extensions:
            X509v3 Basic Constraints: 
                CA:FALSE
            X509v3 Subject Key Identifier: 
                64:9D:C6:CB:02:D7:4F:12:97:67:C6:AE:2B:45:A0:46:66:69:EF:97
            X509v3 Authority Key Identifier: 
                keyid:F7:22:C6:FD:0C:DA:76:06:1F:12:A2:AD:74:CE:DE:81:39:1A:0B:4C
                DirName:/CN=ThomCert
                serial:43:F8:F2:35:E5:6A:75:01:23:49:34:AA:CA:E5:D8:1C

    Signature Algorithm: sha256WithRSAEncryption
         32:89:19:c0:7d:20:e8:de:a8:fa:67:05:c2:9d:eb:48:c9:33:
         94:5e:fa:55:ba:0e:9e:c9:e8:61:c2:70:02:74:07:ee:08:3e:
         74:f5:99:7c:eb:a9:f3:72:6e:1e:01:55:4f:f7:1f:10:b5:1b:
         e0:01:52:3b:b9:3e:52:f9:cf:b9:10:09:9a:4c:60:95:cc:08:
         95:ca:af:60:c9:f8:e4:ae:fc:7d:e1:23:b0:56:bb:60:e1:71:
         8f:a0:38:74:a5:83:02:20:32:0a:de:55:18:90:de:20:aa:b7:
         20:2f:10:a9:49:ac:f7:b7:db:a3:0a:31:e8:59:02:43:69:02:
         fd:be:4e:60:31:da:d8:1b:6f:e6:78:6c:78:a4:b4:10:bc:8d:
         c1:75:ff:9d:14:66:3c:85:7f:0f:c6:34:97:6a:93:28:32:c6:
         bc:b1:4e:1d:74:08:53:32:28:9b:24:36:81:ae:74:6b:63:b4:
         98:4b:1a:4c:ed:07:6f:9e:e4:4a:c2:ac:7d:98:3e:b1:45:1a:
         35:85:8b:48:69:68:31:c5:bb:5d:71:f9:5e:04:db:85:9e:74:
         72:ed:5b:98:93:05:76:ac:77:36:ad:7e:c9:52:4f:22:4e:c3:
         87:02:c3:02:32:d2:c4:55:9b:fa:a2:36:07:e4:c1:50:95:54:
         f9:59:df:d5
-----BEGIN CERTIFICATE-----
MIIDKjCCAhKgAwIBAgIRALuzvwFbeBJhffp/8ieY5gAwDQYJKoZIhvcNAQELBQAw
EzERMA8GA1UEAwwIVGhvbUNlcnQwHhcNMjAwNDE1MTU0ODEyWhcNMjIwNzE5MTU0
ODEyWjAUMRIwEAYDVQQDDAlsb2NhbGhvc3QwggEiMA0GCSqGSIb3DQEBAQUAA4IB
DwAwggEKAoIBAQC27bgZoB5rw+dDtSahL7gj6h/SRH9fjAi/k0SuP3QVVjOqOvhy
au+y7+1nLlkgoqSHrpyeEMwxruF5zcRLAn+Cu20x6aYOp/F4g6SSUDzo1dF0YwBM
Aw+sDD5eOQmBQBPR54kx8p3L9lmpK+zLGUWzVEEE++BqkYUHSpSokOv/j7nPZ7kp
LYQuQRp9IbCOUqT1inJyw0H/XDIeBBKeJa/dbFDZCTfE1lUVHjYFDuCY+9lliBzo
3Vaq+nk3VaguxUTpD0XwLAam4AA39zRqp4pS7IwVjIEcOS8+xPNDAD3D54vxI4Vk
RLnQM7MYoLGozIe12uinzRGYuofYCVo6CE+XAgMBAAGjeDB2MAkGA1UdEwQCMAAw
HQYDVR0OBBYEFGSdxssC108Sl2fGritFoEZmae+XMEoGA1UdIwRDMEGAFPcixv0M
2nYGHxKirXTO3oE5GgtMoRekFTATMREwDwYDVQQDDAhUaG9tQ2VydIIQQ/jyNeVq
dQEjSTSqyuXYHDANBgkqhkiG9w0BAQsFAAOCAQEAMokZwH0g6N6o+mcFwp3rSMkz
lF76VboOnsnoYcJwAnQH7gg+dPWZfOup83JuHgFVT/cfELUb4AFSO7k+UvnPuRAJ
mkxglcwIlcqvYMn45K78feEjsFa7YOFxj6A4dKWDAiAyCt5VGJDeIKq3IC8QqUms
97fbowox6FkCQ2kC/b5OYDHa2Btv5nhseKS0ELyNwXX/nRRmPIV/D8Y0l2qTKDLG
vLFOHXQIUzIomyQ2ga50a2O0mEsaTO0Hb57kSsKsfZg+sUUaNYWLSGloMcW7XXH5
XgTbhZ50cu1bmJMFdqx3Nq1+yVJPIk7DhwLDAjLSxFWb+qI2B+TBUJVU+Vnf1Q==
-----END CERTIFICATE-----
