Certificate:
    Data:
        Version: 3 (0x2)
        Serial Number:
            bb:b3:bf:01:5b:78:12:61:7d:fa:7f:f2:27:98:e5:ff
        Signature Algorithm: sha256WithRSAEncryption
        Issuer: CN=ThomCert
        Validity
            Not Before: Apr 15 15:47:18 2020 GMT
            Not After : Jul 19 15:47:18 2022 GMT
        Subject: CN=localhost
        Subject Public Key Info:
            Public Key Algorithm: rsaEncryption
                RSA Public-Key: (2048 bit)
                Modulus:
                    00:b6:ed:b8:19:a0:1e:6b:c3:e7:43:b5:26:a1:2f:
                    b8:23:ea:1f:d2:44:7f:5f:8c:08:bf:93:44:ae:3f:
                    74:15:56:33:aa:3a:f8:72:6a:ef:b2:ef:ed:67:2e:
                    59:20:a2:a4:87:ae:9c:9e:10:cc:31:ae:e1:79:cd:
                    c4:4b:02:7f:82:bb:6d:31:e9:a6:0e:a7:f1:78:83:
                    a4:92:50:3c:e8:d5:d1:74:63:00:4c:03:0f:ac:0c:
                    3e:5e:39:09:81:40:13:d1:e7:89:31:f2:9d:cb:f6:
                    59:a9:2b:ec:cb:19:45:b3:54:41:04:fb:e0:6a:91:
                    85:07:4a:94:a8:90:eb:ff:8f:b9:cf:67:b9:29:2d:
                    84:2e:41:1a:7d:21:b0:8e:52:a4:f5:8a:72:72:c3:
                    41:ff:5c:32:1e:04:12:9e:25:af:dd:6c:50:d9:09:
                    37:c4:d6:55:15:1e:36:05:0e:e0:98:fb:d9:65:88:
                    1c:e8:dd:56:aa:fa:79:37:55:a8:2e:c5:44:e9:0f:
                    45:f0:2c:06:a6:e0:00:37:f7:34:6a:a7:8a:52:ec:
                    8c:15:8c:81:1c:39:2f:3e:c4:f3:43:00:3d:c3:e7:
                    8b:f1:23:85:64:44:b9:d0:33:b3:18:a0:b1:a8:cc:
                    87:b5:da:e8:a7:cd:11:98:ba:87:d8:09:5a:3a:08:
                    4f:97
                Exponent: 65537 (0x10001)
        X509v3 extensions:
            X509v3 Basic Constraints: 
                CA:FALSE
            X509v3 Subject Key Identifier: 
                64:9D:C6:CB:02:D7:4F:12:97:67:C6:AE:2B:45:A0:46:66:69:EF:97
            X509v3 Authority Key Identifier: 
                keyid:F7:22:C6:FD:0C:DA:76:06:1F:12:A2:AD:74:CE:DE:81:39:1A:0B:4C
                DirName:/CN=ThomCert
                serial:43:F8:F2:35:E5:6A:75:01:23:49:34:AA:CA:E5:D8:1C

    Signature Algorithm: sha256WithRSAEncryption
         4b:e7:f7:7a:27:14:b3:f0:92:69:37:5f:70:f4:16:4a:1b:3c:
         32:c5:93:04:ea:02:35:2b:49:fc:a3:64:d4:69:f9:22:9c:da:
         50:ab:a1:7d:98:17:5c:23:e7:da:5f:e5:a1:7d:08:ed:87:46:
         09:21:2c:ba:a9:f3:c5:44:d6:be:24:11:d9:61:9f:58:5f:be:
         d2:2d:e6:9f:b4:93:5a:2c:94:52:a4:2a:99:9b:ac:d7:d1:5f:
         e6:79:fb:43:ca:a3:dc:e6:9f:11:95:b7:63:31:a9:45:c6:66:
         b2:e6:87:1a:80:4e:ea:73:16:99:9d:a4:c9:cd:b5:8b:2f:14:
         a5:68:43:5b:93:c8:35:d3:f4:67:32:ad:1f:61:0d:da:e1:b3:
         98:65:8f:85:43:6f:15:30:68:e6:86:be:9d:48:3f:7a:30:da:
         dd:46:74:b3:36:d6:2a:bd:75:30:c0:1e:60:66:e5:82:b3:ea:
         5a:8b:72:d9:21:b7:5d:76:48:fe:e1:94:57:25:f3:c5:54:3e:
         35:f0:e7:7c:d1:87:34:1a:bc:29:3c:66:5e:ce:06:b2:a5:37:
         f1:24:7a:61:c8:89:d9:c0:3e:9b:a1:65:74:e3:fd:0e:47:f0:
         5b:f1:e1:a6:02:77:54:26:da:b4:a3:9e:33:6a:0b:c7:44:41:
         b0:c6:aa:06
-----BEGIN CERTIFICATE-----
MIIDKjCCAhKgAwIBAgIRALuzvwFbeBJhffp/8ieY5f8wDQYJKoZIhvcNAQELBQAw
EzERMA8GA1UEAwwIVGhvbUNlcnQwHhcNMjAwNDE1MTU0NzE4WhcNMjIwNzE5MTU0
NzE4WjAUMRIwEAYDVQQDDAlsb2NhbGhvc3QwggEiMA0GCSqGSIb3DQEBAQUAA4IB
DwAwggEKAoIBAQC27bgZoB5rw+dDtSahL7gj6h/SRH9fjAi/k0SuP3QVVjOqOvhy
au+y7+1nLlkgoqSHrpyeEMwxruF5zcRLAn+Cu20x6aYOp/F4g6SSUDzo1dF0YwBM
Aw+sDD5eOQmBQBPR54kx8p3L9lmpK+zLGUWzVEEE++BqkYUHSpSokOv/j7nPZ7kp
LYQuQRp9IbCOUqT1inJyw0H/XDIeBBKeJa/dbFDZCTfE1lUVHjYFDuCY+9lliBzo
3Vaq+nk3VaguxUTpD0XwLAam4AA39zRqp4pS7IwVjIEcOS8+xPNDAD3D54vxI4Vk
RLnQM7MYoLGozIe12uinzRGYuofYCVo6CE+XAgMBAAGjeDB2MAkGA1UdEwQCMAAw
HQYDVR0OBBYEFGSdxssC108Sl2fGritFoEZmae+XMEoGA1UdIwRDMEGAFPcixv0M
2nYGHxKirXTO3oE5GgtMoRekFTATMREwDwYDVQQDDAhUaG9tQ2VydIIQQ/jyNeVq
dQEjSTSqyuXYHDANBgkqhkiG9w0BAQsFAAOCAQEAS+f3eicUs/CSaTdfcPQWShs8
MsWTBOoCNStJ/KNk1Gn5IpzaUKuhfZgXXCPn2l/loX0I7YdGCSEsuqnzxUTWviQR
2WGfWF++0i3mn7STWiyUUqQqmZus19Ff5nn7Q8qj3OafEZW3YzGpRcZmsuaHGoBO
6nMWmZ2kyc21iy8UpWhDW5PINdP0ZzKtH2EN2uGzmGWPhUNvFTBo5oa+nUg/ejDa
3UZ0szbWKr11MMAeYGblgrPqWoty2SG3XXZI/uGUVyXzxVQ+NfDnfNGHNBq8KTxm
Xs4GsqU38SR6YciJ2cA+m6FldOP9DkfwW/HhpgJ3VCbatKOeM2oLx0RBsMaqBg==
-----END CERTIFICATE-----
