Certificate:
    Data:
        Version: 3 (0x2)
        Serial Number:
            e3:7f:31:7f:de:9c:10:de:56:56:ab:00:38:8d:d9:08
        Signature Algorithm: sha256WithRSAEncryption
        Issuer: CN=ThomCert
        Validity
            Not Before: Jun 10 11:27:39 2020 GMT
            Not After : Sep 13 11:27:39 2022 GMT
        Subject: CN=servername
        Subject Public Key Info:
            Public Key Algorithm: rsaEncryption
                RSA Public-Key: (2048 bit)
                Modulus:
                    00:ac:8f:8c:99:b8:b4:d8:43:a2:5f:e4:c9:92:4e:
                    8e:76:e1:1f:3e:8b:94:9a:7e:61:33:48:67:e6:af:
                    04:92:60:64:5d:f3:1f:64:00:8f:5d:1a:56:e7:bc:
                    f3:3e:9d:a0:39:f3:9b:6d:8c:61:03:3b:76:05:6e:
                    b1:56:9d:e9:6c:3a:de:5f:1b:57:23:f0:e3:13:83:
                    89:fb:d0:3f:05:9f:eb:18:74:78:92:00:94:51:fd:
                    e1:fb:88:12:81:bd:30:a5:bd:53:d7:d5:17:ad:c0:
                    8c:e3:5f:a3:a5:24:b4:7e:ba:a7:e6:57:c1:9c:9a:
                    6a:6d:66:aa:91:9e:ae:3f:6d:47:81:73:67:64:78:
                    d6:7f:5a:94:f0:9e:8e:f2:4d:7d:73:9c:78:74:0f:
                    26:5b:8f:70:62:5d:8f:2f:79:a2:ad:a0:42:4e:04:
                    1e:89:8c:83:31:a7:31:c2:30:ba:a7:9f:65:08:c6:
                    c1:78:ff:84:de:fb:4b:7c:d2:26:07:3b:5e:e5:5f:
                    74:ce:3d:eb:38:06:6f:16:23:d7:79:97:78:26:fb:
                    fa:64:7a:ba:c4:e2:e5:6e:5e:56:da:ce:e2:fc:67:
                    b2:a0:41:d2:22:bb:b7:7f:cb:ef:eb:0a:fb:49:73:
                    47:75:26:59:26:1d:e3:01:c3:98:a4:ff:80:aa:04:
                    81:8f
                Exponent: 65537 (0x10001)
        X509v3 extensions:
            X509v3 Basic Constraints: 
                CA:FALSE
            X509v3 Subject Key Identifier: 
                C0:AD:67:1E:6D:16:09:A1:F8:4D:94:FE:FC:A5:88:CB:1B:B3:D3:BD
            X509v3 Authority Key Identifier: 
                keyid:F7:22:C6:FD:0C:DA:76:06:1F:12:A2:AD:74:CE:DE:81:39:1A:0B:4C
                DirName:/CN=ThomCert
                serial:43:F8:F2:35:E5:6A:75:01:23:49:34:AA:CA:E5:D8:1C

            X509v3 Extended Key Usage: 
                TLS Web Server Authentication
            X509v3 Key Usage: 
                Digital Signature, Key Encipherment
            X509v3 Subject Alternative Name: 
                DNS:localhost
    Signature Algorithm: sha256WithRSAEncryption
         0d:fa:3f:14:6a:5e:98:0d:a5:d3:56:68:9b:bf:ee:39:b9:c7:
         26:8a:34:d7:2c:a3:77:98:c6:1c:f8:32:c1:3c:87:51:67:b9:
         dd:ad:7e:45:8d:6f:e1:f7:ae:41:23:c7:1f:36:cd:dd:16:f1:
         2d:f7:32:46:2a:31:e0:99:57:19:fa:fa:71:22:c4:7e:d3:4a:
         bb:e6:79:91:10:ee:95:dc:bd:b1:7c:5e:33:5a:fc:e6:77:5f:
         0d:a0:88:6b:3a:25:2e:30:ac:8e:e0:77:59:f7:df:7a:eb:a0:
         b2:79:e8:42:3c:8d:ee:44:f3:99:66:56:a9:a6:19:23:7e:22:
         ca:7f:f6:29:0e:bc:59:aa:ed:d4:b1:c6:0f:85:68:ae:24:81:
         00:1c:2b:a8:a7:0e:e0:01:eb:58:0f:9a:6a:91:bb:f1:19:f8:
         3c:6f:67:dd:52:8f:6c:34:3f:da:cc:2f:8a:6d:98:c1:2b:e9:
         db:0b:4c:6f:69:e2:36:d8:16:74:b7:c9:b4:85:e0:d7:49:a0:
         67:79:b5:15:31:50:a5:73:87:11:06:1b:46:fb:5a:24:c8:8b:
         20:62:33:ec:e4:a3:85:b6:83:fc:df:76:43:6d:5b:80:c6:44:
         fc:3f:2d:00:4c:89:c5:82:ff:c7:f5:98:4b:c2:cb:00:aa:b5:
         b4:77:41:b5
-----BEGIN CERTIFICATE-----
MIIDZTCCAk2gAwIBAgIRAON/MX/enBDeVlarADiN2QgwDQYJKoZIhvcNAQELBQAw
EzERMA8GA1UEAwwIVGhvbUNlcnQwHhcNMjAwNjEwMTEyNzM5WhcNMjIwOTEzMTEy
NzM5WjAVMRMwEQYDVQQDDApzZXJ2ZXJuYW1lMIIBIjANBgkqhkiG9w0BAQEFAAOC
AQ8AMIIBCgKCAQEArI+Mmbi02EOiX+TJkk6OduEfPouUmn5hM0hn5q8EkmBkXfMf
ZACPXRpW57zzPp2gOfObbYxhAzt2BW6xVp3pbDreXxtXI/DjE4OJ+9A/BZ/rGHR4
kgCUUf3h+4gSgb0wpb1T19UXrcCM41+jpSS0frqn5lfBnJpqbWaqkZ6uP21HgXNn
ZHjWf1qU8J6O8k19c5x4dA8mW49wYl2PL3miraBCTgQeiYyDMacxwjC6p59lCMbB
eP+E3vtLfNImBzte5V90zj3rOAZvFiPXeZd4Jvv6ZHq6xOLlbl5W2s7i/GeyoEHS
Iru3f8vv6wr7SXNHdSZZJh3jAcOYpP+AqgSBjwIDAQABo4GxMIGuMAkGA1UdEwQC
MAAwHQYDVR0OBBYEFMCtZx5tFgmh+E2U/vyliMsbs9O9MEoGA1UdIwRDMEGAFPci
xv0M2nYGHxKirXTO3oE5GgtMoRekFTATMREwDwYDVQQDDAhUaG9tQ2VydIIQQ/jy
NeVqdQEjSTSqyuXYHDATBgNVHSUEDDAKBggrBgEFBQcDATALBgNVHQ8EBAMCBaAw
FAYDVR0RBA0wC4IJbG9jYWxob3N0MA0GCSqGSIb3DQEBCwUAA4IBAQAN+j8Ual6Y
DaXTVmibv+45uccmijTXLKN3mMYc+DLBPIdRZ7ndrX5FjW/h965BI8cfNs3dFvEt
9zJGKjHgmVcZ+vpxIsR+00q75nmREO6V3L2xfF4zWvzmd18NoIhrOiUuMKyO4HdZ
999666CyeehCPI3uRPOZZlapphkjfiLKf/YpDrxZqu3UscYPhWiuJIEAHCuopw7g
AetYD5pqkbvxGfg8b2fdUo9sND/azC+KbZjBK+nbC0xvaeI22BZ0t8m0heDXSaBn
ebUVMVClc4cRBhtG+1okyIsgYjPs5KOFtoP833ZDbVuAxkT8Py0ATInFgv/H9ZhL
wssAqrW0d0G1
-----END CERTIFICATE-----
