Certificate:
    Data:
        Version: 3 (0x2)
        Serial Number:
            e8:4a:56:eb:fc:7c:58:1e:30:60:d8:e0:f8:b3:24:fa
        Signature Algorithm: sha256WithRSAEncryption
        Issuer: CN=ThomCert
        Validity
            Not Before: Jun 10 11:28:21 2020 GMT
            Not After : Sep 13 11:28:21 2022 GMT
        Subject: CN=servername
        Subject Public Key Info:
            Public Key Algorithm: rsaEncryption
                RSA Public-Key: (2048 bit)
                Modulus:
                    00:e7:30:d6:a6:25:a4:5b:27:ce:6e:1d:25:d2:25:
                    68:0c:d1:77:ad:4f:66:6f:5f:c9:3b:3e:83:4d:99:
                    6e:06:59:6b:86:af:fc:cb:f4:3b:b2:07:c7:b5:ee:
                    d8:b8:f3:94:d9:ef:89:90:ae:b1:9c:a6:77:c2:08:
                    eb:1e:79:2c:a8:db:a6:b4:f7:af:d4:47:08:a4:c4:
                    02:82:c3:81:22:79:d2:1a:16:ad:ad:75:c7:cc:63:
                    5f:5c:26:81:69:a8:8b:d0:1f:67:ad:19:a9:52:06:
                    09:ec:4d:09:3e:1c:c1:c9:cb:5c:27:2e:8e:18:0a:
                    5e:8e:b3:7c:67:a0:cc:0b:8c:d7:22:7b:4d:c1:0f:
                    21:9b:93:16:d6:47:d5:0d:2e:45:c7:5c:21:93:f3:
                    73:2d:ea:47:c8:75:c5:a7:b2:9c:81:a8:ec:a9:95:
                    2c:84:e0:dc:e7:8d:dd:51:c1:b8:06:e5:48:5c:12:
                    85:60:c0:19:c5:88:99:74:02:bb:40:c6:9c:d4:08:
                    b4:c9:ff:bd:6d:16:ee:df:7b:64:0f:c5:fc:c0:c3:
                    ac:20:c1:1d:33:4f:f8:7f:6c:e8:7b:9c:7a:8b:f5:
                    e1:7b:57:81:54:66:9a:2c:34:8e:88:4f:ce:96:52:
                    83:0e:c4:48:7e:e5:1e:28:bc:ee:99:19:85:c9:7c:
                    b1:5d
                Exponent: 65537 (0x10001)
        X509v3 extensions:
            X509v3 Basic Constraints: 
                CA:FALSE
            X509v3 Subject Key Identifier: 
                49:21:54:80:51:03:E1:8E:E5:6C:28:03:C4:E3:DD:87:56:B4:42:A6
            X509v3 Authority Key Identifier: 
                keyid:F7:22:C6:FD:0C:DA:76:06:1F:12:A2:AD:74:CE:DE:81:39:1A:0B:4C
                DirName:/CN=ThomCert
                serial:43:F8:F2:35:E5:6A:75:01:23:49:34:AA:CA:E5:D8:1C

            X509v3 Extended Key Usage: 
                TLS Web Server Authentication
            X509v3 Key Usage: 
                Digital Signature, Key Encipherment
            X509v3 Subject Alternative Name: 
                DNS:localhost
    Signature Algorithm: sha256WithRSAEncryption
         50:26:e1:de:4d:f3:db:40:d7:c4:c3:e0:af:5b:19:f6:68:7d:
         b0:54:39:92:9d:29:50:c7:44:d2:0c:00:6e:6c:60:d8:13:c2:
         68:e3:a7:1b:75:a4:b5:05:c7:9f:10:20:ff:f3:5c:b2:b5:cd:
         47:eb:03:1f:53:9b:38:5c:e1:82:d0:99:17:83:85:f6:45:65:
         ba:a6:d4:53:04:08:f4:0d:e9:d9:db:47:63:5c:fc:a9:50:4a:
         84:33:ac:4d:9a:a5:30:35:dd:2a:fb:53:d8:ce:3e:74:97:d5:
         4f:bd:f8:81:0b:49:94:70:6c:c3:90:70:75:5a:cd:53:ce:d1:
         2c:1e:bb:7d:57:c7:5f:53:42:06:9b:08:3f:f7:dc:f1:2e:8a:
         36:d1:34:15:2a:60:5d:d6:86:7d:09:4a:40:23:ef:0e:bf:16:
         00:07:02:fb:83:25:fe:f9:f7:08:2c:ee:ad:1b:e7:3f:ab:58:
         43:3c:03:19:16:c6:48:b0:33:46:6f:66:e2:00:4f:a2:7a:68:
         7a:91:1d:b8:ae:65:7e:6c:0b:1b:ab:b0:65:02:62:4a:94:f3:
         5d:ad:60:e9:22:1a:4d:43:0e:d9:13:36:19:f4:69:b2:57:b5:
         ab:20:4d:5b:59:1c:53:67:09:3c:bb:04:39:50:72:69:55:5f:
         b0:31:7a:82
-----BEGIN CERTIFICATE-----
MIIDZTCCAk2gAwIBAgIRAOhKVuv8fFgeMGDY4PizJPowDQYJKoZIhvcNAQELBQAw
EzERMA8GA1UEAwwIVGhvbUNlcnQwHhcNMjAwNjEwMTEyODIxWhcNMjIwOTEzMTEy
ODIxWjAVMRMwEQYDVQQDDApzZXJ2ZXJuYW1lMIIBIjANBgkqhkiG9w0BAQEFAAOC
AQ8AMIIBCgKCAQEA5zDWpiWkWyfObh0l0iVoDNF3rU9mb1/JOz6DTZluBllrhq/8
y/Q7sgfHte7YuPOU2e+JkK6xnKZ3wgjrHnksqNumtPev1EcIpMQCgsOBInnSGhat
rXXHzGNfXCaBaaiL0B9nrRmpUgYJ7E0JPhzByctcJy6OGApejrN8Z6DMC4zXIntN
wQ8hm5MW1kfVDS5Fx1whk/NzLepHyHXFp7KcgajsqZUshODc543dUcG4BuVIXBKF
YMAZxYiZdAK7QMac1Ai0yf+9bRbu33tkD8X8wMOsIMEdM0/4f2zoe5x6i/Xhe1eB
VGaaLDSOiE/OllKDDsRIfuUeKLzumRmFyXyxXQIDAQABo4GxMIGuMAkGA1UdEwQC
MAAwHQYDVR0OBBYEFEkhVIBRA+GO5WwoA8Tj3YdWtEKmMEoGA1UdIwRDMEGAFPci
xv0M2nYGHxKirXTO3oE5GgtMoRekFTATMREwDwYDVQQDDAhUaG9tQ2VydIIQQ/jy
NeVqdQEjSTSqyuXYHDATBgNVHSUEDDAKBggrBgEFBQcDATALBgNVHQ8EBAMCBaAw
FAYDVR0RBA0wC4IJbG9jYWxob3N0MA0GCSqGSIb3DQEBCwUAA4IBAQBQJuHeTfPb
QNfEw+CvWxn2aH2wVDmSnSlQx0TSDABubGDYE8Jo46cbdaS1BcefECD/81yytc1H
6wMfU5s4XOGC0JkXg4X2RWW6ptRTBAj0DenZ20djXPypUEqEM6xNmqUwNd0q+1PY
zj50l9VPvfiBC0mUcGzDkHB1Ws1TztEsHrt9V8dfU0IGmwg/99zxLoo20TQVKmBd
1oZ9CUpAI+8OvxYABwL7gyX++fcILO6tG+c/q1hDPAMZFsZIsDNGb2biAE+iemh6
kR24rmV+bAsbq7BlAmJKlPNdrWDpIhpNQw7ZEzYZ9GmyV7WrIE1bWRxTZwk8uwQ5
UHJpVV+wMXqC
-----END CERTIFICATE-----
