Certificate:
    Data:
        Version: 3 (0x2)
        Serial Number:
            ed:27:57:8b:c4:fa:09:82:f2:b5:5a:22:94:78:bd:c6
        Signature Algorithm: sha256WithRSAEncryption
        Issuer: CN=ThomCert
        Validity
            Not Before: Jun 10 12:16:52 2020 GMT
            Not After : Sep 13 12:16:52 2022 GMT
        Subject: CN=servername
        Subject Public Key Info:
            Public Key Algorithm: rsaEncryption
                RSA Public-Key: (2048 bit)
                Modulus:
                    00:c1:c9:0f:95:f9:a6:98:df:47:7f:38:65:14:2b:
                    43:68:5b:45:d6:cd:0e:4c:5e:54:9a:fb:b0:d6:74:
                    c0:61:23:c2:86:cc:c4:a6:d5:2e:54:a2:d0:38:9f:
                    16:cb:05:0a:b7:7c:4a:db:a9:96:cd:0a:91:ff:a8:
                    b9:ba:b1:fa:f4:71:b4:78:76:42:1a:39:10:16:a0:
                    bd:ad:e6:6c:c6:d1:88:4f:51:d6:4c:18:de:98:6e:
                    30:6b:59:5a:2a:6c:fb:e0:fd:de:6c:07:bc:4c:4a:
                    28:9c:c8:9d:29:f5:e7:ff:06:4e:b9:67:f9:38:34:
                    76:28:4f:84:06:59:2b:84:1f:e7:53:9c:e6:02:9a:
                    ed:5e:19:87:dd:2b:76:f3:26:ad:ce:f4:19:80:40:
                    79:e1:ab:93:bc:e3:1a:10:ba:0b:92:da:2e:ce:f0:
                    6a:d2:2c:0d:58:00:ff:9a:7f:0f:8a:72:24:61:22:
                    34:50:03:45:ae:41:4a:82:fa:e2:b5:d6:b6:3c:7c:
                    ff:69:9e:fd:68:7b:a3:49:ad:1c:7d:20:be:d1:5a:
                    09:13:72:71:6a:35:20:bc:e6:77:07:b7:48:ff:20:
                    39:ba:cc:0a:c6:e7:f0:7b:0c:69:bb:62:f8:0d:c2:
                    c7:b9:9e:39:60:93:b8:65:c9:9d:ed:0b:f9:00:90:
                    3f:9b
                Exponent: 65537 (0x10001)
        X509v3 extensions:
            X509v3 Basic Constraints: 
                CA:FALSE
            X509v3 Subject Key Identifier: 
                90:FC:76:7F:FC:46:9A:74:BF:BE:B7:69:8E:4A:22:8A:6C:12:9A:F7
            X509v3 Authority Key Identifier: 
                keyid:F7:22:C6:FD:0C:DA:76:06:1F:12:A2:AD:74:CE:DE:81:39:1A:0B:4C
                DirName:/CN=ThomCert
                serial:43:F8:F2:35:E5:6A:75:01:23:49:34:AA:CA:E5:D8:1C

            X509v3 Extended Key Usage: 
                TLS Web Server Authentication
            X509v3 Key Usage: 
                Digital Signature, Key Encipherment
            X509v3 Subject Alternative Name: 
                DNS:localhost
    Signature Algorithm: sha256WithRSAEncryption
         a3:d3:fc:31:95:81:e3:5d:7b:f3:a0:87:aa:0f:5e:a3:a8:e3:
         52:f8:80:55:6a:ef:e8:6f:88:01:cb:95:60:a4:54:96:21:a2:
         89:53:f4:af:41:3d:62:c2:76:af:2f:35:75:36:8f:be:d3:79:
         94:45:8f:bc:85:a3:49:03:d2:d0:6f:f2:18:28:9b:4b:7c:5b:
         a8:db:c1:d1:fd:01:b5:12:ef:12:65:11:7d:05:43:1d:ee:d3:
         83:d3:81:31:4a:64:9b:3d:e8:24:b5:6d:1c:41:58:f9:ad:21:
         ad:e5:d5:f4:37:14:77:0d:28:b3:d9:f9:27:d3:61:02:7c:c2:
         96:89:19:2a:5f:88:45:1f:23:22:e6:da:79:25:75:e9:0e:1a:
         1e:73:f6:8a:eb:66:fe:e7:0e:a3:36:2b:8b:0f:fb:45:6d:8b:
         94:b4:ab:be:8e:4a:95:84:60:71:91:bf:2e:7b:ae:c0:d8:20:
         2c:17:1b:12:91:fc:89:49:38:08:46:39:91:49:4b:3c:45:27:
         ce:33:e1:ba:23:3f:c0:b4:a3:4f:a6:47:20:98:77:6e:07:cc:
         77:3c:f0:75:90:e1:97:6c:59:ca:28:cf:4c:e0:3a:88:bc:67:
         2d:f5:49:d7:b8:70:86:71:e9:23:f2:95:5e:94:64:e5:fa:b8:
         84:97:b5:e7
-----BEGIN CERTIFICATE-----
MIIDZTCCAk2gAwIBAgIRAO0nV4vE+gmC8rVaIpR4vcYwDQYJKoZIhvcNAQELBQAw
EzERMA8GA1UEAwwIVGhvbUNlcnQwHhcNMjAwNjEwMTIxNjUyWhcNMjIwOTEzMTIx
NjUyWjAVMRMwEQYDVQQDDApzZXJ2ZXJuYW1lMIIBIjANBgkqhkiG9w0BAQEFAAOC
AQ8AMIIBCgKCAQEAwckPlfmmmN9HfzhlFCtDaFtF1s0OTF5Umvuw1nTAYSPChszE
ptUuVKLQOJ8WywUKt3xK26mWzQqR/6i5urH69HG0eHZCGjkQFqC9reZsxtGIT1HW
TBjemG4wa1laKmz74P3ebAe8TEoonMidKfXn/wZOuWf5ODR2KE+EBlkrhB/nU5zm
AprtXhmH3St28yatzvQZgEB54auTvOMaELoLktouzvBq0iwNWAD/mn8PinIkYSI0
UANFrkFKgvritda2PHz/aZ79aHujSa0cfSC+0VoJE3JxajUgvOZ3B7dI/yA5uswK
xufwewxpu2L4DcLHuZ45YJO4Zcmd7Qv5AJA/mwIDAQABo4GxMIGuMAkGA1UdEwQC
MAAwHQYDVR0OBBYEFJD8dn/8Rpp0v763aY5KIopsEpr3MEoGA1UdIwRDMEGAFPci
xv0M2nYGHxKirXTO3oE5GgtMoRekFTATMREwDwYDVQQDDAhUaG9tQ2VydIIQQ/jy
NeVqdQEjSTSqyuXYHDATBgNVHSUEDDAKBggrBgEFBQcDATALBgNVHQ8EBAMCBaAw
FAYDVR0RBA0wC4IJbG9jYWxob3N0MA0GCSqGSIb3DQEBCwUAA4IBAQCj0/wxlYHj
XXvzoIeqD16jqONS+IBVau/ob4gBy5VgpFSWIaKJU/SvQT1iwnavLzV1No++03mU
RY+8haNJA9LQb/IYKJtLfFuo28HR/QG1Eu8SZRF9BUMd7tOD04ExSmSbPegktW0c
QVj5rSGt5dX0NxR3DSiz2fkn02ECfMKWiRkqX4hFHyMi5tp5JXXpDhoec/aK62b+
5w6jNiuLD/tFbYuUtKu+jkqVhGBxkb8ue67A2CAsFxsSkfyJSTgIRjmRSUs8RSfO
M+G6Iz/AtKNPpkcgmHduB8x3PPB1kOGXbFnKKM9M4DqIvGct9UnXuHCGcekj8pVe
lGTl+riEl7Xn
-----END CERTIFICATE-----
