Certificate:
    Data:
        Version: 3 (0x2)
        Serial Number:
            f1:a2:62:b1:9f:7f:d6:97:69:bf:62:38:25:9a:db:71
        Signature Algorithm: sha256WithRSAEncryption
        Issuer: CN=ThomCert
        Validity
            Not Before: Apr 28 10:59:45 2020 GMT
            Not After : Aug  1 10:59:45 2022 GMT
        Subject: CN=servername
        Subject Public Key Info:
            Public Key Algorithm: rsaEncryption
                RSA Public-Key: (2048 bit)
                Modulus:
                    00:f4:1d:fa:10:2c:5c:4b:2b:5d:d9:87:45:cb:c6:
                    ec:f9:4c:a1:08:c4:2f:2f:78:88:a3:71:a3:5d:07:
                    8e:27:27:fa:f4:40:db:ae:6f:88:dd:8c:04:67:33:
                    80:06:74:36:df:f7:05:de:75:6b:3d:21:ab:2d:b5:
                    fc:26:9a:b5:fa:32:a7:37:2d:ea:72:bf:38:1a:5a:
                    92:eb:dc:62:47:63:f5:1e:39:42:e7:a0:be:17:90:
                    46:8e:9b:1c:f0:5c:3b:5b:23:f2:32:3d:73:d7:98:
                    ae:11:c9:1f:72:58:af:11:eb:e9:9b:50:b3:e9:ee:
                    02:41:bb:a8:8c:0c:b7:f5:61:3d:3d:e5:90:9b:c3:
                    fe:11:13:02:c7:01:e1:dc:5a:bc:44:98:26:8e:69:
                    c0:a7:13:18:4f:66:2d:cd:98:07:12:a0:a0:6a:4a:
                    9d:77:3f:f8:16:72:bd:92:f0:26:1a:c1:e5:26:9f:
                    6d:bb:17:b5:d8:8f:fe:ec:e6:22:b4:a8:29:6a:ab:
                    5d:7d:b2:6e:9d:02:a9:bc:53:c2:4e:0a:1c:b3:18:
                    c0:80:51:48:9a:89:45:fa:51:84:4f:e0:25:5c:91:
                    0a:3d:d5:d7:2e:1f:3f:42:b1:50:03:fe:7f:02:c9:
                    b9:88:8b:41:a2:52:5a:70:97:89:3a:30:8a:8d:de:
                    ad:b9
                Exponent: 65537 (0x10001)
        X509v3 extensions:
            X509v3 Basic Constraints: 
                CA:FALSE
            X509v3 Subject Key Identifier: 
                EE:46:5F:B1:34:17:C5:48:98:28:4D:88:C1:91:1D:48:48:2B:78:C5
            X509v3 Authority Key Identifier: 
                keyid:F7:22:C6:FD:0C:DA:76:06:1F:12:A2:AD:74:CE:DE:81:39:1A:0B:4C
                DirName:/CN=ThomCert
                serial:43:F8:F2:35:E5:6A:75:01:23:49:34:AA:CA:E5:D8:1C

            X509v3 Extended Key Usage: 
                TLS Web Server Authentication
            X509v3 Key Usage: 
                Digital Signature, Key Encipherment
            X509v3 Subject Alternative Name: 
                DNS:localhost
    Signature Algorithm: sha256WithRSAEncryption
         a8:3f:a3:eb:d6:a4:78:89:7d:79:98:36:92:9a:3f:02:94:64:
         e6:12:51:b3:85:f8:2c:e2:f2:15:a2:c2:39:d4:61:c8:3b:c1:
         8a:24:83:5c:e9:95:cb:18:05:1e:48:53:18:ad:27:27:70:d5:
         e6:8d:93:72:6a:b3:71:74:4f:2a:3c:eb:48:31:a3:6f:c8:d1:
         39:40:ce:0c:6b:25:90:d8:dc:33:8e:1a:12:e7:21:f8:f3:45:
         b0:6b:a3:da:7d:47:5d:7e:50:21:3a:c6:5f:3c:a5:58:1a:f1:
         3d:14:25:68:4c:4b:a9:b7:b0:28:c1:04:ca:31:db:12:de:c2:
         2a:d7:34:5e:1e:19:89:b6:1c:00:8d:bc:f9:19:39:ca:f3:e5:
         07:ce:aa:e5:ad:59:fb:48:52:b9:34:37:21:67:0a:10:92:98:
         19:4e:8a:7d:4b:74:07:11:17:14:d0:41:bf:cf:d7:c4:50:45:
         f1:89:ef:73:b5:ed:d3:02:e0:35:15:3b:c6:ce:b6:ed:32:2a:
         45:4c:09:f9:a5:60:f3:b6:cf:c6:2f:4d:54:7b:9b:98:4f:bb:
         5a:bc:9d:68:38:69:ee:a8:e8:61:94:0d:6c:3b:b8:42:14:8a:
         be:50:ad:2f:5a:8a:73:80:42:4d:0d:bf:53:dd:b2:63:51:7d:
         0c:ff:77:59
-----BEGIN CERTIFICATE-----
MIIDZTCCAk2gAwIBAgIRAPGiYrGff9aXab9iOCWa23EwDQYJKoZIhvcNAQELBQAw
EzERMA8GA1UEAwwIVGhvbUNlcnQwHhcNMjAwNDI4MTA1OTQ1WhcNMjIwODAxMTA1
OTQ1WjAVMRMwEQYDVQQDDApzZXJ2ZXJuYW1lMIIBIjANBgkqhkiG9w0BAQEFAAOC
AQ8AMIIBCgKCAQEA9B36ECxcSytd2YdFy8bs+UyhCMQvL3iIo3GjXQeOJyf69EDb
rm+I3YwEZzOABnQ23/cF3nVrPSGrLbX8Jpq1+jKnNy3qcr84GlqS69xiR2P1HjlC
56C+F5BGjpsc8Fw7WyPyMj1z15iuEckfclivEevpm1Cz6e4CQbuojAy39WE9PeWQ
m8P+ERMCxwHh3Fq8RJgmjmnApxMYT2YtzZgHEqCgakqddz/4FnK9kvAmGsHlJp9t
uxe12I/+7OYitKgpaqtdfbJunQKpvFPCTgocsxjAgFFImolF+lGET+AlXJEKPdXX
Lh8/QrFQA/5/Asm5iItBolJacJeJOjCKjd6tuQIDAQABo4GxMIGuMAkGA1UdEwQC
MAAwHQYDVR0OBBYEFO5GX7E0F8VImChNiMGRHUhIK3jFMEoGA1UdIwRDMEGAFPci
xv0M2nYGHxKirXTO3oE5GgtMoRekFTATMREwDwYDVQQDDAhUaG9tQ2VydIIQQ/jy
NeVqdQEjSTSqyuXYHDATBgNVHSUEDDAKBggrBgEFBQcDATALBgNVHQ8EBAMCBaAw
FAYDVR0RBA0wC4IJbG9jYWxob3N0MA0GCSqGSIb3DQEBCwUAA4IBAQCoP6Pr1qR4
iX15mDaSmj8ClGTmElGzhfgs4vIVosI51GHIO8GKJINc6ZXLGAUeSFMYrScncNXm
jZNyarNxdE8qPOtIMaNvyNE5QM4MayWQ2NwzjhoS5yH480Wwa6PafUddflAhOsZf
PKVYGvE9FCVoTEupt7AowQTKMdsS3sIq1zReHhmJthwAjbz5GTnK8+UHzqrlrVn7
SFK5NDchZwoQkpgZTop9S3QHERcU0EG/z9fEUEXxie9zte3TAuA1FTvGzrbtMipF
TAn5pWDzts/GL01Ue5uYT7tavJ1oOGnuqOhhlA1sO7hCFIq+UK0vWopzgEJNDb9T
3bJjUX0M/3dZ
-----END CERTIFICATE-----
