Certificate:
    Data:
        Version: 3 (0x2)
        Serial Number:
            e0:26:99:18:0e:e1:7a:b1:bb:e6:db:d2:d0:60:79:d8
        Signature Algorithm: sha256WithRSAEncryption
        Issuer: CN=ThomCert
        Validity
            Not Before: Apr 12 13:53:00 2021 GMT
            Not After : Jul 16 13:53:00 2023 GMT
        Subject: CN=client
        Subject Public Key Info:
            Public Key Algorithm: rsaEncryption
                RSA Public-Key: (2048 bit)
                Modulus:
                    00:c6:0c:c2:89:10:10:31:e4:dd:92:ba:80:d7:49:
                    e4:8d:4f:f3:11:7b:f0:c9:ad:55:42:16:91:8d:93:
                    ad:b5:47:23:96:29:01:cc:6d:e7:be:5e:e5:0d:06:
                    f9:c8:d8:08:90:7d:e3:06:c2:1e:fc:4d:6d:99:5a:
                    2d:5d:1c:04:7d:ce:b5:99:01:89:62:7f:06:a5:7a:
                    95:e3:07:79:52:e6:56:54:ff:c7:03:89:a7:92:84:
                    e1:c2:fe:d1:85:1f:5c:04:49:44:d0:f2:ab:35:71:
                    99:50:68:07:e8:f4:0d:2b:da:a0:6e:90:c7:4c:86:
                    c0:1e:40:c6:66:28:36:02:9e:2b:85:a3:de:7e:28:
                    f3:d5:51:71:c5:ea:7c:0a:a9:eb:21:15:9b:8b:3c:
                    74:64:d5:4a:a4:87:35:5c:ac:25:99:b6:ad:8a:18:
                    a5:49:e5:af:46:12:ad:be:bd:e1:64:c7:db:fd:f9:
                    b5:fc:ba:da:65:55:27:0e:bd:24:61:bb:24:56:80:
                    1a:1b:42:c8:96:75:55:97:6e:32:8d:7e:42:95:09:
                    6c:63:09:6c:3d:ec:18:fb:d8:ad:af:6f:30:03:ec:
                    54:38:28:1d:cc:09:96:51:7a:23:2d:a9:fb:dd:9e:
                    e5:75:9c:1b:7f:9c:a7:9f:80:c4:33:81:e3:e7:5b:
                    5b:51
                Exponent: 65537 (0x10001)
        X509v3 extensions:
            X509v3 Basic Constraints: 
                CA:FALSE
            X509v3 Subject Key Identifier: 
                B9:1D:97:A3:FB:7E:9B:40:6E:4E:9B:BE:C8:00:0A:0B:38:31:9F:C6
            X509v3 Authority Key Identifier: 
                keyid:F7:22:C6:FD:0C:DA:76:06:1F:12:A2:AD:74:CE:DE:81:39:1A:0B:4C
                DirName:/CN=ThomCert
                serial:43:F8:F2:35:E5:6A:75:01:23:49:34:AA:CA:E5:D8:1C

            X509v3 Extended Key Usage: 
                TLS Web Client Authentication
            X509v3 Key Usage: 
                Digital Signature
    Signature Algorithm: sha256WithRSAEncryption
         60:93:54:34:44:32:4d:e3:a9:e6:20:d2:b2:64:a6:93:51:91:
         8c:e7:5b:66:fc:04:72:18:41:23:f3:fc:44:86:45:ec:6b:4f:
         d7:96:04:e5:be:46:ff:0f:db:4b:20:aa:64:64:d4:78:42:b5:
         f2:b2:b8:ae:c9:0a:fe:0b:d2:bb:dd:42:14:57:9f:75:27:b3:
         ad:19:49:73:1c:cc:16:2e:60:43:13:88:9b:ce:62:31:f1:6e:
         94:cd:78:3f:8c:fd:fd:f2:ab:af:15:87:02:33:ee:99:f5:5e:
         f2:fb:04:4f:89:7d:5f:26:b3:1a:6a:dc:e0:ff:b4:9f:c0:47:
         9c:f9:5c:bf:1b:1c:aa:a9:16:70:c8:0a:8a:28:24:14:d2:8d:
         0d:dc:de:2b:82:83:a2:27:0b:16:30:22:60:1e:64:af:99:ba:
         b0:60:9c:d2:68:ff:d8:63:68:09:c8:fe:17:4e:f5:35:46:32:
         dd:1a:39:c0:3a:ee:61:22:15:17:6d:43:83:1d:53:30:d6:16:
         49:e2:59:bc:d8:f6:1a:74:ed:7f:3f:27:1d:fb:5d:c8:2e:50:
         38:7b:1a:e3:44:52:76:77:d8:83:fe:a6:e9:70:54:78:e7:b2:
         44:30:ed:fd:31:3e:d8:a5:4b:89:9e:bb:a2:23:2d:80:7f:4a:
         9e:be:f9:70
-----BEGIN CERTIFICATE-----
MIIDSzCCAjOgAwIBAgIRAOAmmRgO4Xqxu+bb0tBgedgwDQYJKoZIhvcNAQELBQAw
EzERMA8GA1UEAwwIVGhvbUNlcnQwHhcNMjEwNDEyMTM1MzAwWhcNMjMwNzE2MTM1
MzAwWjARMQ8wDQYDVQQDDAZjbGllbnQwggEiMA0GCSqGSIb3DQEBAQUAA4IBDwAw
ggEKAoIBAQDGDMKJEBAx5N2SuoDXSeSNT/MRe/DJrVVCFpGNk621RyOWKQHMbee+
XuUNBvnI2AiQfeMGwh78TW2ZWi1dHAR9zrWZAYlifwalepXjB3lS5lZU/8cDiaeS
hOHC/tGFH1wESUTQ8qs1cZlQaAfo9A0r2qBukMdMhsAeQMZmKDYCniuFo95+KPPV
UXHF6nwKqeshFZuLPHRk1UqkhzVcrCWZtq2KGKVJ5a9GEq2+veFkx9v9+bX8utpl
VScOvSRhuyRWgBobQsiWdVWXbjKNfkKVCWxjCWw97Bj72K2vbzAD7FQ4KB3MCZZR
eiMtqfvdnuV1nBt/nKefgMQzgePnW1tRAgMBAAGjgZswgZgwCQYDVR0TBAIwADAd
BgNVHQ4EFgQUuR2Xo/t+m0BuTpu+yAAKCzgxn8YwSgYDVR0jBEMwQYAU9yLG/Qza
dgYfEqKtdM7egTkaC0yhF6QVMBMxETAPBgNVBAMMCFRob21DZXJ0ghBD+PI15Wp1
ASNJNKrK5dgcMBMGA1UdJQQMMAoGCCsGAQUFBwMCMAsGA1UdDwQEAwIHgDANBgkq
hkiG9w0BAQsFAAOCAQEAYJNUNEQyTeOp5iDSsmSmk1GRjOdbZvwEchhBI/P8RIZF
7GtP15YE5b5G/w/bSyCqZGTUeEK18rK4rskK/gvSu91CFFefdSezrRlJcxzMFi5g
QxOIm85iMfFulM14P4z9/fKrrxWHAjPumfVe8vsET4l9XyazGmrc4P+0n8BHnPlc
vxscqqkWcMgKiigkFNKNDdzeK4KDoicLFjAiYB5kr5m6sGCc0mj/2GNoCcj+F071
NUYy3Ro5wDruYSIVF21Dgx1TMNYWSeJZvNj2GnTtfz8nHftdyC5QOHsa40RSdnfY
g/6m6XBUeOeyRDDt/TE+2KVLiZ67oiMtgH9Knr75cA==
-----END CERTIFICATE-----
