Certificate:
    Data:
        Version: 3 (0x2)
        Serial Number:
            bb:b3:bf:01:5b:78:12:61:7d:fa:7f:f2:27:98:e5:fe
        Signature Algorithm: sha256WithRSAEncryption
        Issuer: CN=ThomCert
        Validity
            Not Before: Apr 15 14:15:04 2020 GMT
            Not After : Jul 19 14:15:04 2022 GMT
        Subject: CN=localhost
        Subject Public Key Info:
            Public Key Algorithm: ED25519
                ED25519 Public-Key:
                pub:
                    29:91:e3:15:4e:42:9a:47:26:8c:db:7a:1f:c3:02:
                    ba:0e:d0:11:5b:f7:ab:4e:62:89:f0:11:ea:85:62:
                    53:5f
        X509v3 extensions:
            X509v3 Basic Constraints: 
                CA:FALSE
            X509v3 Subject Key Identifier: 
                FF:68:86:2C:A7:7E:C0:D3:47:E3:B7:F2:70:8A:05:A4:11:74:06:3C
            X509v3 Authority Key Identifier: 
                keyid:F7:22:C6:FD:0C:DA:76:06:1F:12:A2:AD:74:CE:DE:81:39:1A:0B:4C
                DirName:/CN=ThomCert
                serial:43:F8:F2:35:E5:6A:75:01:23:49:34:AA:CA:E5:D8:1C

            X509v3 Extended Key Usage: 
                TLS Web Server Authentication
            X509v3 Key Usage: 
                Digital Signature, Key Encipherment
            X509v3 Subject Alternative Name: 
                DNS:localhost
    Signature Algorithm: sha256WithRSAEncryption
         84:1c:0d:4b:a9:b9:ca:4d:8f:fb:23:0e:1c:d5:ad:0d:9d:ab:
         88:26:37:76:6f:b8:54:e1:12:a9:48:53:6a:e4:94:ec:17:d6:
         3e:44:da:0e:d7:cf:61:46:80:10:0a:6a:a4:d3:24:ac:75:4f:
         c6:50:e0:d7:08:6b:23:86:8d:01:79:30:4b:72:43:f7:98:98:
         7e:78:36:f7:d3:07:47:a0:90:7c:db:48:29:f6:11:90:c5:11:
         7a:83:86:f3:7f:82:d9:b4:85:db:fc:fa:0d:57:97:4d:88:92:
         da:19:9b:aa:91:f7:2c:e9:4f:d3:e3:34:3b:3c:29:5e:60:c9:
         7a:6b:1c:61:f2:71:e5:09:d5:50:64:de:49:ea:cd:1a:a0:50:
         c5:2c:2f:71:fe:10:eb:aa:e8:a4:c0:af:bc:95:71:20:f1:61:
         a0:4c:85:bd:05:9c:74:b3:4a:6f:b0:f0:7f:ab:ad:90:42:02:
         ca:e1:b8:53:a7:ed:a8:1f:ab:05:00:33:83:97:eb:b5:51:81:
         e7:3b:84:1a:75:4f:0a:f9:34:68:f7:06:97:14:8f:32:f9:21:
         cf:b5:d3:a2:9d:15:d1:15:d8:1a:15:2c:6b:76:9e:1f:96:bd:
         69:da:cb:81:0f:e3:3d:3c:81:fd:9d:27:bb:f7:07:cc:b3:2c:
         10:83:5a:e3
-----BEGIN CERTIFICATE-----
MIICajCCAVKgAwIBAgIRALuzvwFbeBJhffp/8ieY5f4wDQYJKoZIhvcNAQELBQAw
EzERMA8GA1UEAwwIVGhvbUNlcnQwHhcNMjAwNDE1MTQxNTA0WhcNMjIwNzE5MTQx
NTA0WjAUMRIwEAYDVQQDDAlsb2NhbGhvc3QwKjAFBgMrZXADIQApkeMVTkKaRyaM
23ofwwK6DtARW/erTmKJ8BHqhWJTX6OBsTCBrjAJBgNVHRMEAjAAMB0GA1UdDgQW
BBT/aIYsp37A00fjt/JwigWkEXQGPDBKBgNVHSMEQzBBgBT3Isb9DNp2Bh8Soq10
zt6BORoLTKEXpBUwEzERMA8GA1UEAwwIVGhvbUNlcnSCEEP48jXlanUBI0k0qsrl
2BwwEwYDVR0lBAwwCgYIKwYBBQUHAwEwCwYDVR0PBAQDAgWgMBQGA1UdEQQNMAuC
CWxvY2FsaG9zdDANBgkqhkiG9w0BAQsFAAOCAQEAhBwNS6m5yk2P+yMOHNWtDZ2r
iCY3dm+4VOESqUhTauSU7BfWPkTaDtfPYUaAEApqpNMkrHVPxlDg1whrI4aNAXkw
S3JD95iYfng299MHR6CQfNtIKfYRkMUReoOG83+C2bSF2/z6DVeXTYiS2hmbqpH3
LOlP0+M0OzwpXmDJemscYfJx5QnVUGTeSerNGqBQxSwvcf4Q66ropMCvvJVxIPFh
oEyFvQWcdLNKb7Dwf6utkEICyuG4U6ftqB+rBQAzg5frtVGB5zuEGnVPCvk0aPcG
lxSPMvkhz7XTop0V0RXYGhUsa3aeH5a9adrLgQ/jPTyB/Z0nu/cHzLMsEINa4w==
-----END CERTIFICATE-----
