Certificate:
    Data:
        Version: 3 (0x2)
        Serial Number:
            43:f8:f2:35:e5:6a:75:01:23:49:34:aa:ca:e5:d8:1c
        Signature Algorithm: sha256WithRSAEncryption
        Issuer: CN=ThomCert
        Validity
            Not Before: Apr 15 14:02:43 2020 GMT
            Not After : Jul 19 14:02:43 2022 GMT
        Subject: CN=ThomCert
        Subject Public Key Info:
            Public Key Algorithm: rsaEncryption
                RSA Public-Key: (2048 bit)
                Modulus:
                    00:c6:30:99:31:f8:d9:7a:76:a5:02:ab:d6:e2:0d:
                    82:43:a1:3c:0f:da:80:80:70:28:88:06:2c:31:f5:
                    e1:30:49:0c:8c:3c:ac:06:a8:4d:b2:4e:d1:ee:c4:
                    85:e6:1e:50:78:c1:bd:18:3d:e5:54:b1:22:ae:f9:
                    fd:9e:30:4b:7e:6c:c7:1d:a3:b5:83:71:92:b7:75:
                    ca:3f:d5:19:84:c3:07:42:94:55:2a:52:84:cc:79:
                    2c:c5:94:5e:87:46:69:0b:2a:09:1e:5c:4f:d5:fc:
                    fe:70:a5:4f:80:a3:b9:41:a6:1a:2e:5c:e7:19:52:
                    a3:15:d4:8f:80:02:93:22:71:71:87:5c:22:e9:68:
                    dc:af:14:45:5a:ae:5f:cd:1c:e0:9a:8d:3a:32:f5:
                    f6:8a:0e:14:05:a8:53:c1:6c:8e:25:6b:11:7b:4f:
                    7b:55:40:8c:65:7c:f6:d6:46:4d:f9:70:f7:da:41:
                    b5:e4:97:69:81:6c:eb:61:29:20:6a:de:69:3c:00:
                    8e:64:3e:e1:9f:a0:0c:4a:ae:dc:58:88:a0:9d:a9:
                    b4:8e:59:1c:77:6d:35:ca:aa:eb:4f:2a:5b:18:5f:
                    c8:42:8a:6e:c9:c9:eb:94:03:ba:83:ea:3b:0d:68:
                    d0:ec:9e:f9:28:69:1e:f0:26:ff:3f:29:0d:96:3c:
                    3a:e9
                Exponent: 65537 (0x10001)
        X509v3 extensions:
            X509v3 Basic Constraints: 
                CA:TRUE
            X509v3 Subject Key Identifier: 
                F7:22:C6:FD:0C:DA:76:06:1F:12:A2:AD:74:CE:DE:81:39:1A:0B:4C
            X509v3 Authority Key Identifier: 
                keyid:EB:1E:77:03:EA:6D:2F:11:0C:72:0A:CF:DC:FF:84:B6:51:04:BD:AA
                DirName:/CN=ThomCert
                serial:4D:F0:87:43:34:74:45:2E:1F:C0:F9:61:98:9F:62:E1:DD:B5:FB:DF

            X509v3 Key Usage: 
                Certificate Sign, CRL Sign
    Signature Algorithm: sha256WithRSAEncryption
         17:c2:93:e2:58:fb:75:54:43:ea:3e:ae:66:77:d3:e8:a2:ac:
         66:b9:22:7b:8e:71:f6:bc:e6:d9:96:2b:30:26:e3:ec:ee:81:
         0b:8a:af:75:ff:f4:0b:f2:9b:92:9d:d0:bb:45:c3:9d:38:55:
         32:75:38:27:95:86:f4:5b:23:05:35:fb:27:b7:2f:76:03:60:
         61:60:4f:da:5d:20:81:fd:46:64:22:ea:37:c2:0e:75:5a:1d:
         92:2d:8c:bc:9f:c9:12:c9:6d:5d:e8:b4:78:9b:11:82:40:47:
         c7:c7:08:85:e5:10:0f:3c:87:0b:4c:dc:1c:94:17:7b:b2:c8:
         18:69:ca:13:1c:0e:2c:c6:f2:81:3b:32:7c:a2:3d:26:59:f1:
         2c:42:b5:32:dd:d3:0b:7a:29:2e:52:0a:98:b5:9e:a4:69:d0:
         af:3a:39:cf:f8:81:f0:83:38:dc:4c:ad:fe:db:88:51:43:88:
         84:6f:04:46:4b:66:11:44:7b:26:77:a7:e3:48:51:81:5e:8c:
         68:98:41:13:d0:6f:84:e1:39:e7:4a:91:c5:3c:3b:c0:6e:7a:
         5e:60:47:b6:60:1c:8c:d2:1d:b4:b4:da:5e:d3:fa:53:9b:0e:
         66:e7:1f:bd:7b:a0:f4:fc:ad:99:d0:5a:19:61:05:50:12:0e:
         cc:9e:9d:a2
-----BEGIN CERTIFICATE-----
MIIDPjCCAiagAwIBAgIQQ/jyNeVqdQEjSTSqyuXYHDANBgkqhkiG9w0BAQsFADAT
MREwDwYDVQQDDAhUaG9tQ2VydDAeFw0yMDA0MTUxNDAyNDNaFw0yMjA3MTkxNDAy
NDNaMBMxETAPBgNVBAMMCFRob21DZXJ0MIIBIjANBgkqhkiG9w0BAQEFAAOCAQ8A
MIIBCgKCAQEAxjCZMfjZenalAqvW4g2CQ6E8D9qAgHAoiAYsMfXhMEkMjDysBqhN
sk7R7sSF5h5QeMG9GD3lVLEirvn9njBLfmzHHaO1g3GSt3XKP9UZhMMHQpRVKlKE
zHksxZReh0ZpCyoJHlxP1fz+cKVPgKO5QaYaLlznGVKjFdSPgAKTInFxh1wi6Wjc
rxRFWq5fzRzgmo06MvX2ig4UBahTwWyOJWsRe097VUCMZXz21kZN+XD32kG15Jdp
gWzrYSkgat5pPACOZD7hn6AMSq7cWIignam0jlkcd201yqrrTypbGF/IQopuycnr
lAO6g+o7DWjQ7J75KGke8Cb/PykNljw66QIDAQABo4GNMIGKMAwGA1UdEwQFMAMB
Af8wHQYDVR0OBBYEFPcixv0M2nYGHxKirXTO3oE5GgtMME4GA1UdIwRHMEWAFOse
dwPqbS8RDHIKz9z/hLZRBL2qoRekFTATMREwDwYDVQQDDAhUaG9tQ2VydIIUTfCH
QzR0RS4fwPlhmJ9i4d21+98wCwYDVR0PBAQDAgEGMA0GCSqGSIb3DQEBCwUAA4IB
AQAXwpPiWPt1VEPqPq5md9PooqxmuSJ7jnH2vObZliswJuPs7oELiq91//QL8puS
ndC7RcOdOFUydTgnlYb0WyMFNfsnty92A2BhYE/aXSCB/UZkIuo3wg51Wh2SLYy8
n8kSyW1d6LR4mxGCQEfHxwiF5RAPPIcLTNwclBd7ssgYacoTHA4sxvKBOzJ8oj0m
WfEsQrUy3dMLeikuUgqYtZ6kadCvOjnP+IHwgzjcTK3+24hRQ4iEbwRGS2YRRHsm
d6fjSFGBXoxomEET0G+E4TnnSpHFPDvAbnpeYEe2YByM0h20tNpe0/pTmw5m5x+9
e6D0/K2Z0FoZYQVQEg7Mnp2i
-----END CERTIFICATE-----
